(dp0
S'\xe4\xbe\x9d\xe6\xb3\x95'
p1
(dp2
(S'?'
p3
S'+'
p4
g3
tp5
I12992663
s(g4
g4
g3
tp6
I132719
s(g3
g3
g4
tp7
I3691893
s(g3
g4
g4
tp8
I111754
s(g4
g3
g3
tp9
I530826
sS'words'
p10
(g1
S'\xe7\xbb\x8f\xe6\xb5\x8e'
p11
S'\xe7\x8e\xaf\xe4\xbf\x9d'
p12
tp13
s(g4
g4
g4
tp14
I65632
s(g4
g3
g4
tp15
I73682
ssS'\xe8\xae\xb8\xe8\xbf\x90\xe9\xb8\xbf'
p16
(dp17
(g3
g4
g3
tp18
I12992663
s(g4
g4
g3
tp19
I19475
s(g3
g3
g4
tp20
I3691894
s(g3
g4
g4
tp21
I111754
s(g4
g3
g3
tp22
I4506
sg10
(g16
g11
g12
tp23
s(g4
g4
g4
tp24
I2782
s(g4
g3
g4
tp25
I2745
ssS'\xe7\xbb\x8f\xe8\x90\xa5\xe7\xae\xa1\xe7\x90\x86\xe8\x80\x85'
p26
(dp27
(S'?'
p28
S'+'
p29
g28
tp30
I22993781
s(g29
g29
g28
tp31
I16190
s(g28
g28
g29
tp32
I3691879
s(g28
g29
g29
tp33
I142922
s(g29
g28
g28
tp34
I109601
sS'words'
p35
(g26
S'\xe7\xbb\x8f\xe6\xb5\x8e'
p36
S'\xe7\x8e\xaf\xe4\xbf\x9d'
p37
tp38
s(g29
g29
g29
tp39
I24862
s(g29
g28
g29
tp40
I10435
ssS'\xe5\x85\xa8\xe5\x85\x9a'
p41
(dp42
(g3
g4
g3
tp43
I12992776
s(g4
g4
g3
tp44
I73484
s(g3
g3
g4
tp45
I3691893
s(g3
g4
g4
tp46
I111754
s(g4
g3
g3
tp47
I74714
sg10
(g41
g11
g12
tp48
s(g4
g4
g4
tp49
I32451
s(g4
g3
g4
tp50
I45664
ssS'\xe7\xac\xac\xe5\x8d\x81\xe5\x85\xad\xe6\xac\xa1'
p51
(dp52
(g3
g4
g3
tp53
I12992663
s(g4
g4
g3
tp54
I7694
s(g3
g3
g4
tp55
I3691890
s(g3
g4
g4
tp56
I111754
s(g4
g3
g3
tp57
I10210
sg10
(g51
g11
g12
tp58
s(g4
g4
g4
tp59
I4140
s(g4
g3
g4
tp60
I3191
ssS'\xe5\xb8\x82\xe5\x9c\xba'
p61
(dp62
(S'?'
p63
S'+'
p64
g63
tp65
I12992849
s(g64
g64
g63
tp66
I3816889
s(g63
g63
g64
tp67
I3691894
s(g63
g64
g64
tp68
I111506
s(g64
g63
g63
tp69
I16182013
sS'words'
p70
(g61
S'\xe7\xbb\x8f\xe6\xb5\x8e'
p71
S'\xe7\x8e\xaf\xe4\xbf\x9d'
p72
tp73
s(g64
g64
g64
tp74
I141704
s(g64
g63
g64
tp75
I380544
ssS'\xe5\xb0\xb1\xe4\xb8\x9a'
p76
(dp77
(g3
g4
g3
tp78
I12992663
s(g4
g4
g3
tp79
I1506237
s(g3
g3
g4
tp80
I3691890
s(g3
g4
g4
tp81
I111754
s(g4
g3
g3
tp82
I3190757
sg10
(g76
g11
g12
tp83
s(g4
g4
g4
tp84
I42819
s(g4
g3
g4
tp85
I56623
ssS'\xe5\x85\xa8\xe5\x9b\xbd\xe4\xba\xba\xe5\xa4\xa7'
p86
(dp87
(S'?'
p88
S'+'
p89
g88
tp90
I12992748
s(g89
g89
g88
tp91
I100546
s(g88
g88
g89
tp92
I3691891
s(g88
g89
g89
tp93
I112223
s(g89
g88
g88
tp94
I525256
sS'words'
p95
(g86
S'\xe7\xbb\x8f\xe6\xb5\x8e'
p96
S'\xe7\x8e\xaf\xe4\xbf\x9d'
p97
tp98
s(g89
g89
g89
tp99
I67869
s(g89
g88
g89
tp100
I44621
ssS'\xe7\x9d\x80\xe5\x8a\x9b'
p101
(dp102
(g3
g4
g3
tp103
I12992663
s(g4
g4
g3
tp104
I129392
s(g3
g3
g4
tp105
I3691890
s(g3
g4
g4
tp106
I111754
s(g4
g3
g3
tp107
I301894
sg10
(g101
g11
g12
tp108
s(g4
g4
g4
tp109
I44171
s(g4
g3
g4
tp110
I63295
ssS'\xe6\x96\xb9\xe5\xbc\x8f'
p111
(dp112
(g3
g4
g3
tp113
I12992776
s(g4
g4
g3
tp114
I2197115
s(g3
g3
g4
tp115
I3691893
s(g3
g4
g4
tp116
I111754
s(g4
g3
g3
tp117
I3373409
sg10
(g111
g11
g12
tp118
s(g4
g4
g4
tp119
I104751
s(g4
g3
g4
tp120
I376517
ssS'\xe6\x94\xb9\xe9\x9d\xa9'
p121
(dp122
(g3
g4
g3
tp123
I12992663
s(g4
g4
g3
tp124
I1152970
s(g3
g3
g4
tp125
I3691894
s(g3
g4
g4
tp126
I111754
s(g4
g3
g3
tp127
I4356631
sg10
(g121
g11
g12
tp128
s(g4
g4
g4
tp129
I82987
s(g4
g3
g4
tp130
I119263
ssS'\xe7\xbe\xa4\xe4\xbc\x97'
p131
(dp132
(g3
g4
g3
tp133
I12992663
s(g4
g4
g3
tp134
I213923
s(g3
g3
g4
tp135
I3691894
s(g3
g4
g4
tp136
I111754
s(g4
g3
g3
tp137
I381853
sg10
(g131
g11
g12
tp138
s(g4
g4
g4
tp139
I52410
s(g4
g3
g4
tp140
I76148
ssS'\xe4\xb8\x80\xe6\xac\xa1'
p141
(dp142
(g3
g4
g3
tp143
I12992663
s(g4
g4
g3
tp144
I853247
s(g3
g3
g4
tp145
I3691890
s(g3
g4
g4
tp146
I111754
s(g4
g3
g3
tp147
I5628000
sg10
(g141
g11
g12
tp148
s(g4
g4
g4
tp149
I73154
s(g4
g3
g4
tp150
I87402
ssS'\xe7\xb9\x81\xe8\x8d\xa3'
p151
(dp152
(g3
g4
g3
tp153
I12992663
s(g4
g4
g3
tp154
I148014
s(g3
g3
g4
tp155
I3691890
s(g3
g4
g4
tp156
I111754
s(g4
g3
g3
tp157
I231425
sg10
(g151
g11
g12
tp158
s(g4
g4
g4
tp159
I40895
s(g4
g3
g4
tp160
I61041
ssS'\xe5\x9f\x8e\xe4\xb9\xa1'
p161
(dp162
(g3
g4
g3
tp163
I12992776
s(g4
g4
g3
tp164
I304359
s(g3
g3
g4
tp165
I3691893
s(g3
g4
g4
tp166
I111754
s(g4
g3
g3
tp167
I652139
sg10
(g161
g11
g12
tp168
s(g4
g4
g4
tp169
I53934
s(g4
g3
g4
tp170
I67478
ssS'\xe6\x80\x9d\xe6\x83\xb3'
p171
(dp172
(g3
g4
g3
tp173
I12992663
s(g4
g4
g3
tp174
I429431
s(g3
g3
g4
tp175
I3691894
s(g3
g4
g4
tp176
I111754
s(g4
g3
g3
tp177
I2579972
sg10
(g171
g11
g12
tp178
s(g4
g4
g4
tp179
I54492
s(g4
g3
g4
tp180
I71773
ssS'\xe7\x8e\xb0\xe4\xbb\xa3\xe5\x8c\x96'
p181
(dp182
(g3
g4
g3
tp183
I12992663
s(g4
g4
g3
tp184
I173180
s(g3
g3
g4
tp185
I3691890
s(g3
g4
g4
tp186
I111754
s(g4
g3
g3
tp187
I1846344
sg10
(g181
g11
g12
tp188
s(g4
g4
g4
tp189
I60561
s(g4
g3
g4
tp190
I87200
ssS'\xe6\x9c\xba\xe5\x88\xb6'
p191
(dp192
(g3
g4
g3
tp193
I12992663
s(g4
g4
g3
tp194
I932137
s(g3
g3
g4
tp195
I3691894
s(g3
g4
g4
tp196
I111754
s(g4
g3
g3
tp197
I3057876
sg10
(g191
g11
g12
tp198
s(g4
g4
g4
tp199
I76926
s(g4
g3
g4
tp200
I145640
ssS'\xe4\xb8\xad\xe5\xa4\xae\xe5\xa7\x94\xe5\x91\x98\xe4\xbc\x9a'
p201
(dp202
(g88
g89
g88
tp203
I12992748
s(g89
g89
g88
tp204
I9952
s(g88
g88
g89
tp205
I3691891
s(g88
g89
g89
tp206
I112223
s(g89
g88
g88
tp207
I24674
sg95
(g201
g96
g97
tp208
s(g89
g89
g89
tp209
I8935
s(g89
g88
g89
tp210
I3555
ssS'\xe5\x92\x8c\xe8\xb0\x90\xe7\xa4\xbe\xe4\xbc\x9a'
p211
(dp212
(g88
g89
g88
tp213
I12992748
s(g89
g89
g88
tp214
I53430
s(g88
g88
g89
tp215
I3691891
s(g88
g89
g89
tp216
I112223
s(g89
g88
g88
tp217
I122294
sg95
(g211
g96
g97
tp218
s(g89
g89
g89
tp219
I41236
s(g89
g88
g89
tp220
I16714
ssS'\xe4\xbd\x93\xe7\xb3\xbb'
p221
(dp222
(g63
g64
g63
tp223
I12992849
s(g64
g64
g63
tp224
I4137564
s(g63
g63
g64
tp225
I3691894
s(g63
g64
g64
tp226
I111506
s(g64
g63
g63
tp227
I2820076
sg70
(g221
g71
g72
tp228
s(g64
g64
g64
tp229
I70785
s(g64
g63
g64
tp230
I122109
ssS'\xe5\x86\x9b\xe9\x98\x9f'
p231
(dp232
(g63
g64
g63
tp233
I22993781
s(g64
g64
g63
tp234
I47269
s(g63
g63
g64
tp235
I3691879
s(g63
g64
g64
tp236
I142922
s(g64
g63
g63
tp237
I182003
sg70
(g231
g71
g72
tp238
s(g64
g64
g64
tp239
I55204
s(g64
g63
g64
tp240
I25676
ssS'\xe5\x85\x9a\xe7\x9a\x84\xe5\xbb\xba\xe8\xae\xbe'
p241
(dp242
(g63
g64
g63
tp243
I12992849
s(g64
g64
g63
tp244
I180845
s(g63
g63
g64
tp245
I3691879
s(g63
g64
g64
tp246
I111506
s(g64
g63
g63
tp247
I215881
sg70
(g241
g71
g72
tp248
s(g64
g64
g64
tp249
I84119
s(g64
g63
g64
tp250
I45142
ssS'\xe5\x8a\xa0\xe5\xbf\xab'
p251
(dp252
(g28
g29
g28
tp253
I22993781
s(g29
g29
g28
tp254
I688141
s(g28
g28
g29
tp255
I3691879
s(g28
g29
g29
tp256
I142922
s(g29
g28
g28
tp257
I1964717
sg35
(g251
g36
g37
tp258
s(g29
g29
g29
tp259
I73498
s(g29
g28
g29
tp260
I137977
ssS'\xe5\x8d\x81\xe5\x85\xad\xe5\xa4\xa7'
p261
(dp262
(g63
g64
g63
tp263
I22993781
s(g64
g64
g63
tp264
I67213
s(g63
g63
g64
tp265
I3691879
s(g63
g64
g64
tp266
I142922
s(g64
g63
g63
tp267
I35691
sg70
(g261
g71
g72
tp268
s(g64
g64
g64
tp269
I31382
s(g64
g63
g64
tp270
I46228
ssS'\xe4\xbf\x83\xe8\xbf\x9b'
p271
(dp272
(g3
g4
g3
tp273
I12992663
s(g4
g4
g3
tp274
I1051657
s(g3
g3
g4
tp275
I3691890
s(g3
g4
g4
tp276
I111754
s(g4
g3
g3
tp277
I1677399
sg10
(g271
g11
g12
tp278
s(g4
g4
g4
tp279
I95959
s(g4
g3
g4
tp280
I195126
ssS'\xe6\x94\xbf\xe6\xb2\xbb\xe6\x96\x87\xe6\x98\x8e'
p281
(dp282
(g63
g64
g63
tp283
I12992849
s(g64
g64
g63
tp284
I35615
s(g63
g63
g64
tp285
I3691879
s(g63
g64
g64
tp286
I111506
s(g64
g63
g63
tp287
I23646
sg70
(g281
g71
g72
tp288
s(g64
g64
g64
tp289
I8724
s(g64
g63
g64
tp290
I3020
ssS'\xe5\x8d\x8f\xe8\xb0\x83'
p291
(dp292
(g3
g4
g3
tp293
I12992663
s(g4
g4
g3
tp294
I279630
s(g3
g3
g4
tp295
I3691890
s(g3
g4
g4
tp296
I111754
s(g4
g3
g3
tp297
I161959
sg10
(g291
g11
g12
tp298
s(g4
g4
g4
tp299
I47597
s(g4
g3
g4
tp300
I78181
ssS'\xe6\xb7\xb1\xe5\x8c\x96'
p301
(dp302
(g3
g4
g3
tp303
I12992663
s(g4
g4
g3
tp304
I221612
s(g3
g3
g4
tp305
I3691890
s(g3
g4
g4
tp306
I111754
s(g4
g3
g3
tp307
I1158405
sg10
(g301
g11
g12
tp308
s(g4
g4
g4
tp309
I40527
s(g4
g3
g4
tp310
I57474
ssS'\xe6\x95\x99\xe8\x82\xb2'
p311
(dp312
(g63
g64
g63
tp313
I12992849
s(g64
g64
g63
tp314
I1766181
s(g63
g63
g64
tp315
I3691894
s(g63
g64
g64
tp316
I111506
s(g64
g63
g63
tp317
I56688353
sg70
(g311
g71
g72
tp318
s(g64
g64
g64
tp319
I91949
s(g64
g63
g64
tp320
I212719
ssS'\xe5\x8d\x81\xe4\xba\x8c\xe5\xb1\x8a'
p321
(dp322
(g88
g89
g88
tp323
I12992748
s(g89
g89
g88
tp324
I34926
s(g88
g88
g89
tp325
I3691891
s(g88
g89
g89
tp326
I112223
s(g89
g88
g88
tp327
I219422
sg95
(g321
g96
g97
tp328
s(g89
g89
g89
tp329
I21871
s(g89
g88
g89
tp330
I12860
ssS'\xe7\xbb\x8f\xe6\xb5\x8e\xe4\xbd\x93\xe5\x88\xb6'
p331
(dp332
(g63
g64
g63
tp333
I22993781
s(g64
g64
g63
tp334
I1509725
s(g63
g63
g64
tp335
I3691879
s(g63
g64
g64
tp336
I142922
s(g64
g63
g63
tp337
I54806
sg70
(g331
g71
g72
tp338
s(g64
g64
g64
tp339
I19784
s(g64
g63
g64
tp340
I10885
ssS'\xe6\x88\x98\xe7\x95\xa5'
p341
(dp342
(g3
g4
g3
tp343
I12992663
s(g4
g4
g3
tp344
I609167
s(g3
g3
g4
tp345
I3691890
s(g3
g4
g4
tp346
I111754
s(g4
g3
g3
tp347
I3314901
sg10
(g341
g11
g12
tp348
s(g4
g4
g4
tp349
I66066
s(g4
g3
g4
tp350
I99992
ssS'\xe7\x94\x9f\xe4\xba\xa7\xe5\x8a\x9b'
p351
(dp352
(S'?'
p353
S'+'
p354
g353
tp355
I12992776
s(g354
g354
g353
tp356
I102430
s(g353
g353
g354
tp357
I3691893
s(g353
g354
g354
tp358
I111754
s(g354
g353
g353
tp359
I85250
sS'words'
p360
(g351
S'\xe7\xbb\x8f\xe6\xb5\x8e'
p361
S'\xe7\x8e\xaf\xe4\xbf\x9d'
p362
tp363
s(g354
g354
g354
tp364
I42367
s(g354
g353
g354
tp365
I60630
ssS'\xe4\xbc\x9f\xe5\xa4\xa7\xe6\x97\x97\xe5\xb8\x9c'
p366
(dp367
(g63
g64
g63
tp368
I22993781
s(g64
g64
g63
tp369
I25429
s(g63
g63
g64
tp370
I3691879
s(g63
g64
g64
tp371
I111506
s(g64
g63
g63
tp372
I7907
sg70
(g366
g71
g72
tp373
s(g64
g64
g64
tp374
I57300
s(g64
g63
g64
tp375
I28689
ssS'\xe5\x8f\xb8\xe6\xb3\x95'
p376
(dp377
(g3
g4
g3
tp378
I12992663
s(g4
g4
g3
tp379
I247875
s(g3
g3
g4
tp380
I3691890
s(g3
g4
g4
tp381
I111754
s(g4
g3
g3
tp382
I951938
sg10
(g376
g11
g12
tp383
s(g4
g4
g4
tp384
I43296
s(g4
g3
g4
tp385
I60140
ssS'\xe5\xa2\x9e\xe5\xbc\xba'
p386
(dp387
(g3
g4
g3
tp388
I12992776
s(g4
g4
g3
tp389
I1765935
s(g3
g3
g4
tp390
I3691893
s(g3
g4
g4
tp391
I111754
s(g4
g3
g3
tp392
I5265468
sg10
(g386
g11
g12
tp393
s(g4
g4
g4
tp394
I81314
s(g4
g3
g4
tp395
I287201
ssS'\xe5\x88\x9b\xe6\x96\xb0'
p396
(dp397
(g3
g4
g3
tp398
I12992663
s(g4
g4
g3
tp399
I2111922
s(g3
g3
g4
tp400
I3691890
s(g3
g4
g4
tp401
I111754
s(g4
g3
g3
tp402
I2824132
sg10
(g396
g11
g12
tp403
s(g4
g4
g4
tp404
I63934
s(g4
g3
g4
tp405
I116257
ssS'\xe5\x90\x8c\xe5\xbf\x97'
p406
(dp407
(g3
g4
g3
tp408
I12992663
s(g4
g4
g3
tp409
I124053
s(g3
g3
g4
tp410
I3691894
s(g3
g4
g4
tp411
I111754
s(g4
g3
g3
tp412
I801252
sg10
(g406
g11
g12
tp413
s(g4
g4
g4
tp414
I55685
s(g4
g3
g4
tp415
I67661
ssS'\xe8\x81\x8c\xe8\x83\xbd'
p416
(dp417
(g3
g4
g3
tp418
I12992663
s(g4
g4
g3
tp419
I170644
s(g3
g3
g4
tp420
I3691890
s(g3
g4
g4
tp421
I111754
s(g4
g3
g3
tp422
I741912
sg10
(g416
g11
g12
tp423
s(g4
g4
g4
tp424
I61292
s(g4
g3
g4
tp425
I83021
ssS'\xe5\x86\x9c\xe6\xb0\x91'
p426
(dp427
(g353
g354
g353
tp428
I12992776
s(g354
g354
g353
tp429
I552996
s(g353
g353
g354
tp430
I3691893
s(g353
g354
g354
tp431
I111754
s(g354
g353
g353
tp432
I983708
sg360
(g426
g361
g362
tp433
s(g354
g354
g354
tp434
I46406
s(g354
g353
g354
tp435
I81665
ssS'\xe5\x85\xa8\xe5\x9b\xbd\xe6\x94\xbf\xe5\x8d\x8f'
p436
(dp437
(g3
g4
g3
tp438
I12992663
s(g4
g4
g3
tp439
I74605
s(g3
g3
g4
tp440
I3691890
s(g3
g4
g4
tp441
I111754
s(g4
g3
g3
tp442
I57352
sg10
(g436
g11
g12
tp443
s(g4
g4
g4
tp444
I54836
s(g4
g3
g4
tp445
I25839
ssS'\xe5\x8d\x81\xe5\xb1\x8a'
p446
(dp447
(g63
g64
g63
tp448
I12992849
s(g64
g64
g63
tp449
I36352
s(g63
g63
g64
tp450
I3691894
s(g63
g64
g64
tp451
I111506
s(g64
g63
g63
tp452
I288053
sg70
(g446
g71
g72
tp453
s(g64
g64
g64
tp454
I10784
s(g64
g63
g64
tp455
I8128
ssS'\xe5\x8a\xa0\xe5\xbc\xba'
p456
(dp457
(g3
g4
g3
tp458
I12992663
s(g4
g4
g3
tp459
I840370
s(g3
g3
g4
tp460
I3691894
s(g3
g4
g4
tp461
I111754
s(g4
g3
g3
tp462
I4881526
sg10
(g456
g11
g12
tp463
s(g4
g4
g4
tp464
I89179
s(g4
g3
g4
tp465
I208068
ssS'\xe9\x82\x93\xe5\xb0\x8f\xe5\xb9\xb3\xe7\x90\x86\xe8\xae\xba'
p466
(dp467
(g63
g64
g63
tp468
I12992849
s(g64
g64
g63
tp469
I53481
s(g63
g63
g64
tp470
I3691894
s(g63
g64
g64
tp471
I111506
s(g64
g63
g63
tp472
I452770
sg70
(g466
g71
g72
tp473
s(g64
g64
g64
tp474
I67440
s(g64
g63
g64
tp475
I37219
ssS'\xe4\xb8\x89\xe4\xb8\xaa\xe4\xbb\xa3\xe8\xa1\xa8'
p476
(dp477
(g353
g354
g353
tp478
I12992663
s(g354
g354
g353
tp479
I15966
s(g353
g353
g354
tp480
I3691890
s(g353
g354
g354
tp481
I111754
s(g354
g353
g353
tp482
I18243
sg360
(g476
g361
g362
tp483
s(g354
g354
g354
tp484
I45498
s(g354
g353
g354
tp485
I7439
ssS'\xe5\x8f\x91\xe5\xb1\x95\xe8\xa7\x82'
p486
(dp487
(g63
g64
g63
tp488
I22993781
s(g64
g64
g63
tp489
I141035
s(g63
g63
g64
tp490
I3691879
s(g63
g64
g64
tp491
I142922
s(g64
g63
g63
tp492
I103811
sg70
(g486
g71
g72
tp493
s(g64
g64
g64
tp494
I39543
s(g64
g63
g64
tp495
I75800
ssS'\xe4\xb9\x9d\xe5\xb1\x8a'
p496
(dp497
(g63
g64
g63
tp498
I12992849
s(g64
g64
g63
tp499
I38869
s(g63
g63
g64
tp500
I3691894
s(g63
g64
g64
tp501
I111506
s(g64
g63
g63
tp502
I73892
sg70
(g496
g71
g72
tp503
s(g64
g64
g64
tp504
I22799
s(g64
g63
g64
tp505
I11967
ssS'\xe5\x8d\x81\xe4\xb8\x80\xe5\xb1\x8a'
p506
(dp507
(S'?'
p508
S'+'
p509
g508
tp510
I22504095
s(g509
g509
g508
tp511
I14234
s(g508
g508
g509
tp512
I3703712
s(g508
g509
g509
tp513
I159129
s(g509
g508
g508
tp514
I292821
sS'words'
p515
(g506
S'\xe7\xbb\x8f\xe6\xb5\x8e'
p516
S'\xe7\x8e\xaf\xe4\xbf\x9d'
p517
tp518
s(g509
g509
g509
tp519
I31084
s(g509
g508
g509
tp520
I17528
ssS'\xe5\xa7\x8b\xe7\xbb\x88'
p521
(dp522
(g63
g64
g63
tp523
I22993781
s(g64
g64
g63
tp524
I74060
s(g63
g63
g64
tp525
I3691879
s(g63
g64
g64
tp526
I142922
s(g64
g63
g63
tp527
I1551169
sg70
(g521
g71
g72
tp528
s(g64
g64
g64
tp529
I56890
s(g64
g63
g64
tp530
I75005
ssS'\xe7\xbb\x9f\xe7\xad\xb9'
p531
(dp532
(g3
g4
g3
tp533
I12992776
s(g4
g4
g3
tp534
I112621
s(g3
g3
g4
tp535
I3691893
s(g3
g4
g4
tp536
I111754
s(g4
g3
g3
tp537
I105256
sg10
(g531
g11
g12
tp538
s(g4
g4
g4
tp539
I45745
s(g4
g3
g4
tp540
I64598
ssS'\xe7\xac\xac\xe5\x8d\x81\xe5\x85\xad\xe5\xb1\x8a'
p541
(dp542
(g63
g64
g63
tp543
I22993781
s(g64
g64
g63
tp544
I33111
s(g63
g63
g64
tp545
I3691879
s(g63
g64
g64
tp546
I142922
s(g64
g63
g63
tp547
I85691
sg70
(g541
g71
g72
tp548
s(g64
g64
g64
tp549
I23488
s(g64
g63
g64
tp550
I11743
ssS'\xe5\xbf\x85\xe9\xa1\xbb'
p551
(dp552
(g63
g64
g63
tp553
I22993781
s(g64
g64
g63
tp554
I288746
s(g63
g63
g64
tp555
I3691879
s(g63
g64
g64
tp556
I142922
s(g64
g63
g63
tp557
I1499871
sg70
(g551
g71
g72
tp558
s(g64
g64
g64
tp559
I73198
s(g64
g63
g64
tp560
I94979
ssS'\xe8\xa1\x8c\xe6\x94\xbf'
p561
(dp562
(g3
g4
g3
tp563
I12992663
s(g4
g4
g3
tp564
I619756
s(g3
g3
g4
tp565
I3691894
s(g3
g4
g4
tp566
I111754
s(g4
g3
g3
tp567
I1995320
sg10
(g561
g11
g12
tp568
s(g4
g4
g4
tp569
I59517
s(g4
g3
g4
tp570
I113731
ssS'\xe5\x86\x9c\xe4\xb8\x9a'
p571
(dp572
(g353
g354
g353
tp573
I12992776
s(g354
g354
g353
tp574
I1546845
s(g353
g353
g354
tp575
I3691893
s(g353
g354
g354
tp576
I111754
s(g354
g353
g353
tp577
I5646773
sg360
(g571
g361
g362
tp578
s(g354
g354
g354
tp579
I62549
s(g354
g353
g354
tp580
I154882
ssS'\xe6\x9e\x84\xe5\xbb\xba'
p581
(dp582
(g3
g4
g3
tp583
I12992776
s(g4
g4
g3
tp584
I3909190
s(g3
g3
g4
tp585
I3691893
s(g3
g4
g4
tp586
I111754
s(g4
g3
g3
tp587
I1202316
sg10
(g581
g11
g12
tp588
s(g4
g4
g4
tp589
I69910
s(g4
g3
g4
tp590
I447713
ssS'\xe4\xbd\x9c\xe9\xa3\x8e'
p591
(dp592
(g88
g89
g88
tp593
I12992748
s(g89
g89
g88
tp594
I177988
s(g88
g88
g89
tp595
I3691891
s(g88
g89
g89
tp596
I112223
s(g89
g88
g88
tp597
I1889665
sg95
(g591
g96
g97
tp598
s(g89
g89
g89
tp599
I44463
s(g89
g88
g89
tp600
I95014
ssS'\xe4\xbc\x81\xe4\xb8\x9a'
p601
(dp602
(g88
g89
g88
tp603
I12992748
s(g89
g89
g88
tp604
I2641570
s(g88
g88
g89
tp605
I3691891
s(g88
g89
g89
tp606
I112223
s(g89
g88
g88
tp607
I29916482
sg95
(g601
g96
g97
tp608
s(g89
g89
g89
tp609
I226460
s(g89
g88
g89
tp610
I1325802
ssS'\xe4\xba\x8b\xe4\xb8\x9a'
p611
(dp612
(g88
g89
g88
tp613
I12992748
s(g89
g89
g88
tp614
I1239604
s(g88
g88
g89
tp615
I3691891
s(g88
g89
g89
tp616
I112223
s(g89
g88
g88
tp617
I11601447
sg95
(g611
g96
g97
tp618
s(g89
g89
g89
tp619
I93149
s(g89
g88
g89
tp620
I572388
ssS'\xe7\x89\xb9\xe8\x89\xb2'
p621
(dp622
(g63
g64
g63
tp623
I22993781
s(g64
g64
g63
tp624
I556623
s(g63
g63
g64
tp625
I3691879
s(g63
g64
g64
tp626
I142934
s(g64
g63
g63
tp627
I7704721
sg70
(g621
g71
g72
tp628
s(g64
g64
g64
tp629
I62562
s(g64
g63
g64
tp630
I111341
ssS'\xe4\xba\xba\xe6\xb0\x91'
p631
(dp632
(g353
g354
g353
tp633
I12992776
s(g354
g354
g353
tp634
I1313488
s(g353
g353
g354
tp635
I3691893
s(g353
g354
g354
tp636
I111754
s(g354
g353
g353
tp637
I15966640
sg360
(g631
g361
g362
tp638
s(g354
g354
g354
tp639
I76465
s(g354
g353
g354
tp640
I235771
ssS'\xe7\xb2\xbe\xe7\xa5\x9e'
p641
(dp642
(g88
g89
g88
tp643
I12992748
s(g89
g89
g88
tp644
I261614
s(g88
g88
g89
tp645
I3691891
s(g88
g89
g89
tp646
I112223
s(g89
g88
g88
tp647
I1754614
sg95
(g641
g96
g97
tp648
s(g89
g89
g89
tp649
I72493
s(g89
g88
g89
tp650
I65569
ssS'\xe5\x90\x8d\xe5\x8d\x95'
p651
(dp652
(g63
g64
g63
tp653
I22993781
s(g64
g64
g63
tp654
I843150
s(g63
g63
g64
tp655
I3691879
s(g63
g64
g64
tp656
I111506
s(g64
g63
g63
tp657
I9826145
sg70
(g651
g71
g72
tp658
s(g64
g64
g64
tp659
I67065
s(g64
g63
g64
tp660
I101632
ssS'\xe5\x8d\x81\xe4\xb8\x83'
p661
(dp662
(g63
g64
g63
tp663
I12992849
s(g64
g64
g63
tp664
I134390
s(g63
g63
g64
tp665
I3691894
s(g63
g64
g64
tp666
I111506
s(g64
g63
g63
tp667
I516241
sg70
(g661
g71
g72
tp668
s(g64
g64
g64
tp669
I54719
s(g64
g63
g64
tp670
I74688
ssS'\xe4\xbd\x93\xe5\x88\xb6'
p671
(dp672
(g28
g29
g28
tp673
I22993781
s(g29
g29
g28
tp674
I3817782
s(g28
g28
g29
tp675
I3691894
s(g28
g29
g29
tp676
I142934
s(g29
g28
g28
tp677
I2846909
sg35
(g671
g36
g37
tp678
s(g29
g29
g29
tp679
I28271
s(g29
g28
g29
tp680
I89291
ssS'\xe5\x92\x8c\xe8\xb0\x90'
p681
(dp682
(g63
g64
g63
tp683
I12992849
s(g64
g64
g63
tp684
I216528
s(g63
g63
g64
tp685
I3691879
s(g63
g64
g64
tp686
I111506
s(g64
g63
g63
tp687
I665646
sg70
(g681
g71
g72
tp688
s(g64
g64
g64
tp689
I57436
s(g64
g63
g64
tp690
I77822
ssS'\xe6\xb0\x91\xe4\xb8\xbb'
p691
(dp692
(g63
g64
g63
tp693
I12992849
s(g64
g64
g63
tp694
I132524
s(g63
g63
g64
tp695
I3691894
s(g63
g64
g64
tp696
I111506
s(g64
g63
g63
tp697
I762059
sg70
(g691
g71
g72
tp698
s(g64
g64
g64
tp699
I57826
s(g64
g63
g64
tp700
I71939
ssS'\xe6\x94\xbf\xe6\xb2\xbb'
p701
(dp702
(g63
g64
g63
tp703
I12992746
s(g64
g64
g63
tp704
I649600
s(g63
g63
g64
tp705
I3691879
s(g63
g64
g64
tp706
I142922
s(g64
g63
g63
tp707
I9515159
sg70
(g701
g71
g72
tp708
s(g64
g64
g64
tp709
I77692
s(g64
g63
g64
tp710
I165906
ssS'\xe6\x96\x87\xe5\x8c\x96'
p711
(dp712
(g353
g354
g353
tp713
I12992663
s(g354
g354
g353
tp714
I671405
s(g353
g353
g354
tp715
I3691893
s(g353
g354
g354
tp716
I111754
s(g354
g353
g353
tp717
I7583484
sg360
(g711
g361
g362
tp718
s(g354
g354
g354
tp719
I72370
s(g354
g353
g354
tp720
I114339
ssS'\xe4\xbf\x9d\xe6\x8c\x81'
p721
(dp722
(g3
g4
g3
tp723
I12992663
s(g4
g4
g3
tp724
I433646
s(g3
g3
g4
tp725
I3691890
s(g3
g4
g4
tp726
I111754
s(g4
g3
g3
tp727
I815339
sg10
(g721
g11
g12
tp728
s(g4
g4
g4
tp729
I77462
s(g4
g3
g4
tp730
I74011
ssS'\xe5\xae\x9e\xe6\x96\xbd'
p731
(dp732
(g3
g4
g3
tp733
I12992663
s(g4
g4
g3
tp734
I1255289
s(g3
g3
g4
tp735
I3691894
s(g3
g4
g4
tp736
I111754
s(g4
g3
g3
tp737
I1460600
sg10
(g731
g11
g12
tp738
s(g4
g4
g4
tp739
I95286
s(g4
g3
g4
tp740
I295067
ssS'\xe6\xb1\x9f\xe6\xb3\xbd\xe6\xb0\x91'
p741
(dp742
(g88
g89
g88
tp743
I12992748
s(g89
g89
g88
tp744
I40398
s(g88
g88
g89
tp745
I3691891
s(g88
g89
g89
tp746
I112223
s(g89
g88
g88
tp747
I84194
sg95
(g741
g96
g97
tp748
s(g89
g89
g89
tp749
I12872
s(g89
g88
g89
tp750
I10259
ssS'\xe6\x9c\xba\xe6\x9e\x84'
p751
(dp752
(g63
g64
g63
tp753
I12992849
s(g64
g64
g63
tp754
I1382708
s(g63
g63
g64
tp755
I3691894
s(g63
g64
g64
tp756
I111506
s(g64
g63
g63
tp757
I3298177
sg70
(g751
g71
g72
tp758
s(g64
g64
g64
tp759
I114616
s(g64
g63
g64
tp760
I653734
ssS'\xe5\x9b\xbd\xe6\x9c\x89\xe7\xbb\x8f\xe6\xb5\x8e'
p761
(dp762
(g3
g4
g3
tp763
I12992663
s(g4
g4
g3
tp764
I49760
s(g3
g3
g4
tp765
I3691894
s(g3
g4
g4
tp766
I111754
s(g4
g3
g3
tp767
I313364
sg10
(g761
g11
g12
tp768
s(g4
g4
g4
tp769
I5340
s(g4
g3
g4
tp770
I2313
ssS'\xe5\xb0\x8f\xe5\xba\xb7\xe7\xa4\xbe\xe4\xbc\x9a'
p771
(dp772
(g63
g64
g63
tp773
I12992849
s(g64
g64
g63
tp774
I73529
s(g63
g63
g64
tp775
I3691894
s(g63
g64
g64
tp776
I111506
s(g64
g63
g63
tp777
I71790
sg70
(g771
g71
g72
tp778
s(g64
g64
g64
tp779
I67424
s(g64
g63
g64
tp780
I36792
ssS'\xe6\x88\x91\xe5\x9b\xbd'
p781
(dp782
(g28
g29
g28
tp783
I22993781
s(g29
g29
g28
tp784
I7483781
s(g28
g28
g29
tp785
I3691879
s(g28
g29
g29
tp786
I142934
s(g29
g28
g28
tp787
I2057463
sg35
(g781
g36
g37
tp788
s(g29
g29
g29
tp789
I89004
s(g29
g28
g29
tp790
I515964
ssS'\xe7\xa4\xbe\xe4\xbc\x9a'
p791
(dp792
(g3
g4
g3
tp793
I12992663
s(g4
g4
g3
tp794
I1058018
s(g3
g3
g4
tp795
I3691894
s(g3
g4
g4
tp796
I111754
s(g4
g3
g3
tp797
I6041009
sg10
(g791
g11
g12
tp798
s(g4
g4
g4
tp799
I97110
s(g4
g3
g4
tp800
I140528
ssS'\xe5\x90\x84\xe6\x97\x8f\xe4\xba\xba\xe6\xb0\x91'
p801
(dp802
(g63
g64
g63
tp803
I12992849
s(g64
g64
g63
tp804
I59390
s(g63
g63
g64
tp805
I3691894
s(g63
g64
g64
tp806
I111506
s(g64
g63
g63
tp807
I22557
sg70
(g801
g71
g72
tp808
s(g64
g64
g64
tp809
I54051
s(g64
g63
g64
tp810
I36157
ssS'\xe7\xa4\xbe\xe4\xbc\x9a\xe4\xb8\xbb\xe4\xb9\x89'
p811
(dp812
(g63
g64
g63
tp813
I12992849
s(g64
g64
g63
tp814
I555004
s(g63
g63
g64
tp815
I3691894
s(g63
g64
g64
tp816
I111506
s(g64
g63
g63
tp817
I319208
sg70
(g811
g71
g72
tp818
s(g64
g64
g64
tp819
I62472
s(g64
g63
g64
tp820
I34761
ssS'\xe9\x87\x8d\xe7\x82\xb9'
p821
(dp822
(g3
g4
g3
tp823
I12992776
s(g4
g4
g3
tp824
I1012646
s(g3
g3
g4
tp825
I3691893
s(g3
g4
g4
tp826
I111754
s(g4
g3
g3
tp827
I3240790
sg10
(g821
g11
g12
tp828
s(g4
g4
g4
tp829
I92851
s(g4
g3
g4
tp830
I123817
ssS'\xe7\xbb\x8f\xe6\xb5\x8e'
p831
(dp832
(g88
g89
g88
tp833
I12992748
s(g89
g89
g88
tp834
I15768652
s(g88
g88
g89
tp835
I3691891
s(g88
g89
g89
tp836
I112223
s(g89
g88
g88
tp837
I12992748
sg95
(g831
g96
g97
tp838
s(g89
g89
g89
tp839
I655289
s(g89
g88
g89
tp840
I112223
ssS'\xe5\x9f\xba\xe6\x9c\xac'
p841
(dp842
(g63
g64
g63
tp843
I12992746
s(g64
g64
g63
tp844
I753676
s(g63
g63
g64
tp845
I3691879
s(g63
g64
g64
tp846
I142922
s(g64
g63
g63
tp847
I6129641
sg70
(g841
g71
g72
tp848
s(g64
g64
g64
tp849
I93762
s(g64
g63
g64
tp850
I133646
ssS'\xe9\x9d\x9e\xe5\x85\xac\xe6\x9c\x89\xe5\x88\xb6'
p851
(dp852
(g3
g4
g3
tp853
I12992663
s(g4
g4
g3
tp854
I143946
s(g3
g3
g4
tp855
I3691890
s(g3
g4
g4
tp856
I111754
s(g4
g3
g3
tp857
I26729
sg10
(g851
g11
g12
tp858
s(g4
g4
g4
tp859
I57079
s(g4
g3
g4
tp860
I42972
ssS'\xe7\xae\xa1\xe7\x90\x86\xe4\xbd\x93\xe5\x88\xb6'
p861
(dp862
(g63
g64
g63
tp863
I22993781
s(g64
g64
g63
tp864
I155836
s(g63
g63
g64
tp865
I3691879
s(g63
g64
g64
tp866
I142922
s(g64
g63
g63
tp867
I936933
sg70
(g861
g71
g72
tp868
s(g64
g64
g64
tp869
I58867
s(g64
g63
g64
tp870
I49660
ssS'\xe4\xbe\x9d\xe6\xb3\x95\xe6\xb2\xbb\xe5\x9b\xbd'
p871
(dp872
(g63
g64
g63
tp873
I12992849
s(g64
g64
g63
tp874
I57344
s(g63
g63
g64
tp875
I3691894
s(g63
g64
g64
tp876
I111506
s(g64
g63
g63
tp877
I190906
sg70
(g871
g71
g72
tp878
s(g64
g64
g64
tp879
I69623
s(g64
g63
g64
tp880
I47820
ssS'\xe7\xac\xac\xe5\x8d\x81\xe4\xba\x94\xe5\xb1\x8a'
p881
(dp882
(g3
g4
g3
tp883
I12992776
s(g4
g4
g3
tp884
I27248
s(g3
g3
g4
tp885
I3691893
s(g3
g4
g4
tp886
I111754
s(g4
g3
g3
tp887
I237474
sg10
(g881
g11
g12
tp888
s(g4
g4
g4
tp889
I14628
s(g4
g3
g4
tp890
I12815
ssS'\xe8\x83\xbd\xe5\x8a\x9b'
p891
(dp892
(g3
g4
g3
tp893
I12992663
s(g4
g4
g3
tp894
I704453
s(g3
g3
g4
tp895
I3691890
s(g3
g4
g4
tp896
I111754
s(g4
g3
g3
tp897
I9333853
sg10
(g891
g11
g12
tp898
s(g4
g4
g4
tp899
I57648
s(g4
g3
g4
tp900
I93271
ssS'\xe5\xb7\xa5\xe4\xbd\x9c'
p901
(dp902
(g3
g4
g3
tp903
I12992663
s(g4
g4
g3
tp904
I1451003
s(g3
g3
g4
tp905
I3691890
s(g3
g4
g4
tp906
I111754
s(g4
g3
g3
tp907
I27771135
sg10
(g901
g11
g12
tp908
s(g4
g4
g4
tp909
I97410
s(g4
g3
g4
tp910
I577239
ssS'\xe4\xb9\xa0\xe8\xbf\x91\xe5\xb9\xb3'
p911
(dp912
(g3
g4
g3
tp913
I12992663
s(g4
g4
g3
tp914
I45204
s(g3
g3
g4
tp915
I3691893
s(g3
g4
g4
tp916
I111754
s(g4
g3
g3
tp917
I567648
sg10
(g911
g11
g12
tp918
s(g4
g4
g4
tp919
I15887
s(g4
g3
g4
tp920
I14125
ssS'\xe6\xb3\x95\xe5\xbe\x8b'
p921
(dp922
(g63
g64
g63
tp923
I22993781
s(g64
g64
g63
tp924
I1132250
s(g63
g63
g64
tp925
I3691879
s(g63
g64
g64
tp926
I142922
s(g64
g63
g63
tp927
I11894410
sg70
(g921
g71
g72
tp928
s(g64
g64
g64
tp929
I112147
s(g64
g63
g64
tp930
I230255
ssS'\xe5\x85\x9a\xe7\x9a\x84\xe9\xa2\x86\xe5\xaf\xbc'
p931
(dp932
(g63
g64
g63
tp933
I22993781
s(g64
g64
g63
tp934
I141317
s(g63
g63
g64
tp935
I3691879
s(g63
g64
g64
tp936
I142922
s(g64
g63
g63
tp937
I161681
sg70
(g931
g71
g72
tp938
s(g64
g64
g64
tp939
I68280
s(g64
g63
g64
tp940
I47772
ssS'\xe6\x96\x87\xe5\x8c\x96\xe4\xba\xa7\xe4\xb8\x9a'
p941
(dp942
(g3
g4
g3
tp943
I12992776
s(g4
g4
g3
tp944
I104754
s(g3
g3
g4
tp945
I3691893
s(g3
g4
g4
tp946
I111754
s(g4
g3
g3
tp947
I8604147
sg10
(g941
g11
g12
tp948
s(g4
g4
g4
tp949
I32947
s(g4
g3
g4
tp950
I8250
ssS'\xe4\xb8\x8d\xe6\x96\xad'
p951
(dp952
(g63
g64
g63
tp953
I22993781
s(g64
g64
g63
tp954
I250253
s(g63
g63
g64
tp955
I3691879
s(g63
g64
g64
tp956
I142934
s(g64
g63
g63
tp957
I639156
sg70
(g951
g71
g72
tp958
s(g64
g64
g64
tp959
I87109
s(g64
g63
g64
tp960
I87780
ssS'\xe5\x8d\x81\xe5\x85\xab'
p961
(dp962
(g88
g89
g88
tp963
I12992748
s(g89
g89
g88
tp964
I180175
s(g88
g88
g89
tp965
I3691891
s(g88
g89
g89
tp966
I112223
s(g89
g88
g88
tp967
I949839
sg95
(g961
g96
g97
tp968
s(g89
g89
g89
tp969
I58242
s(g89
g88
g89
tp970
I74149
ssS'\xe7\xa7\x91\xe5\xad\xa6'
p971
(dp972
(g63
g64
g63
tp973
I22993781
s(g64
g64
g63
tp974
I1550528
s(g63
g63
g64
tp975
I3691879
s(g63
g64
g64
tp976
I142922
s(g64
g63
g63
tp977
I28795169
sg70
(g971
g71
g72
tp978
s(g64
g64
g64
tp979
I57484
s(g64
g63
g64
tp980
I1159556
ssS'\xe5\xbb\xba\xe8\xae\xbe'
p981
(dp982
(g88
g89
g88
tp983
I12992748
s(g89
g89
g88
tp984
I1660759
s(g88
g88
g89
tp985
I3691891
s(g88
g89
g89
tp986
I112223
s(g89
g88
g88
tp987
I17503256
sg95
(g981
g96
g97
tp988
s(g89
g89
g89
tp989
I109788
s(g89
g88
g89
tp990
I87731
ssS'\xe7\xbb\x8f\xe6\xb5\x8e\xe7\xa4\xbe\xe4\xbc\x9a'
p991
(dp992
(g3
g4
g3
tp993
I12992663
s(g4
g4
g3
tp994
I345765
s(g3
g3
g4
tp995
I3691894
s(g3
g4
g4
tp996
I111754
s(g4
g3
g3
tp997
I200729
sg10
(g991
g11
g12
tp998
s(g4
g4
g4
tp999
I41522
s(g4
g3
g4
tp1000
I17421
ssS'\xe7\xac\xac\xe5\x8d\x81\xe5\x85\xab\xe5\xb1\x8a'
p1001
(dp1002
(g3
g4
g3
tp1003
I12992663
s(g4
g4
g3
tp1004
I20238
s(g3
g3
g4
tp1005
I3691890
s(g3
g4
g4
tp1006
I111754
s(g4
g3
g3
tp1007
I46096
sg10
(g1001
g11
g12
tp1008
s(g4
g4
g4
tp1009
I11494
s(g4
g3
g4
tp1010
I12920
ssS'\xe6\xb7\xb1\xe5\x8c\x96\xe6\x94\xb9\xe9\x9d\xa9'
p1011
(dp1012
(g28
g29
g28
tp1013
I22993781
s(g29
g29
g28
tp1014
I72591
s(g28
g28
g29
tp1015
I3691879
s(g28
g29
g29
tp1016
I142922
s(g29
g28
g28
tp1017
I199712
sg35
(g1011
g36
g37
tp1018
s(g29
g29
g29
tp1019
I43049
s(g29
g28
g29
tp1020
I18252
ssS'\xe5\x9b\xbd\xe6\x9c\x89\xe4\xbc\x81\xe4\xb8\x9a'
p1021
(dp1022
(g3
g4
g3
tp1023
I12992849
s(g4
g4
g3
tp1024
I511400
s(g3
g3
g4
tp1025
I3691894
s(g3
g4
g4
tp1026
I111754
s(g4
g3
g3
tp1027
I340698
sg10
(g1021
g11
g12
tp1028
s(g4
g4
g4
tp1029
I59828
s(g4
g3
g4
tp1030
I37716
ssS'\xe5\x85\x9a\xe5\x86\x85'
p1031
(dp1032
(g63
g64
g63
tp1033
I22993781
s(g64
g64
g63
tp1034
I25145
s(g63
g63
g64
tp1035
I3691894
s(g63
g64
g64
tp1036
I111506
s(g64
g63
g63
tp1037
I61030
sg70
(g1031
g71
g72
tp1038
s(g64
g64
g64
tp1039
I16472
s(g64
g63
g64
tp1040
I7175
ssS'\xe5\xb9\xb2\xe9\x83\xa8'
p1041
(dp1042
(g63
g64
g63
tp1043
I22993781
s(g64
g64
g63
tp1044
I199275
s(g63
g63
g64
tp1045
I3691879
s(g63
g64
g64
tp1046
I111506
s(g64
g63
g63
tp1047
I3377789
sg70
(g1041
g71
g72
tp1048
s(g64
g64
g64
tp1049
I38411
s(g64
g63
g64
tp1050
I93407
ssS'\xe5\x88\xb6\xe5\xba\xa6'
p1051
(dp1052
(g3
g4
g3
tp1053
I12992776
s(g4
g4
g3
tp1054
I1940857
s(g3
g3
g4
tp1055
I3691893
s(g3
g4
g4
tp1056
I111754
s(g4
g3
g3
tp1057
I7651957
sg10
(g1051
g11
g12
tp1058
s(g4
g4
g4
tp1059
I99370
s(g4
g3
g4
tp1060
I394814
ssS'\xe4\xbd\x93\xe5\x88\xb6\xe6\x94\xb9\xe9\x9d\xa9'
p1061
(dp1062
(g28
g29
g28
tp1063
I22993781
s(g29
g29
g28
tp1064
I427774
s(g28
g28
g29
tp1065
I3691879
s(g28
g29
g29
tp1066
I142922
s(g29
g28
g28
tp1067
I26936
sg35
(g1061
g36
g37
tp1068
s(g29
g29
g29
tp1069
I63478
s(g29
g28
g29
tp1070
I36391
ssS'\xe7\xbb\x93\xe5\x90\x88'
p1071
(dp1072
(g353
g354
g353
tp1073
I12992776
s(g354
g354
g353
tp1074
I557327
s(g353
g353
g354
tp1075
I3691893
s(g353
g354
g354
tp1076
I111754
s(g354
g353
g353
tp1077
I4454245
sg360
(g1071
g361
g362
tp1078
s(g354
g354
g354
tp1079
I83973
s(g354
g353
g354
tp1080
I136291
ssS'\xe5\x8d\x81\xe4\xb8\x80\xe4\xba\x94'
p1081
(dp1082
(g3
g4
g3
tp1083
I12992663
s(g4
g4
g3
tp1084
I96173
s(g3
g3
g4
tp1085
I3691894
s(g3
g4
g4
tp1086
I111754
s(g4
g3
g3
tp1087
I183587
sg10
(g1081
g11
g12
tp1088
s(g4
g4
g4
tp1089
I48731
s(g4
g3
g4
tp1090
I43942
ssS'\xe5\x9b\xbd\xe5\x8a\xa1\xe9\x99\xa2'
p1091
(dp1092
(g63
g64
g63
tp1093
I12992849
s(g64
g64
g63
tp1094
I1394933
s(g63
g63
g64
tp1095
I3691894
s(g63
g64
g64
tp1096
I111506
s(g64
g63
g63
tp1097
I258491
sg70
(g1091
g71
g72
tp1098
s(g64
g64
g64
tp1099
I49452
s(g64
g63
g64
tp1100
I58526
ssS'\xe4\xbc\x9a\xe8\xae\xae'
p1101
(dp1102
(g63
g64
g63
tp1103
I12992746
s(g64
g64
g63
tp1104
I1634522
s(g63
g63
g64
tp1105
I3691879
s(g63
g64
g64
tp1106
I142922
s(g64
g63
g63
tp1107
I3195483
sg70
(g1101
g71
g72
tp1108
s(g64
g64
g64
tp1109
I86344
s(g64
g63
g64
tp1110
I175247
ssS'\xe8\xb4\xaf\xe5\xbd\xbb'
p1111
(dp1112
(g353
g354
g353
tp1113
I12992663
s(g354
g354
g353
tp1114
I129070
s(g353
g353
g354
tp1115
I3691893
s(g353
g354
g354
tp1116
I111754
s(g354
g353
g353
tp1117
I193794
sg360
(g1111
g361
g362
tp1118
s(g354
g354
g354
tp1119
I55353
s(g354
g353
g354
tp1120
I63234
ssS'\xe5\x85\xa8\xe4\xbc\x9a'
p1121
(dp1122
(g3
g4
g3
tp1123
I12992663
s(g4
g4
g3
tp1124
I129059
s(g3
g3
g4
tp1125
I3691894
s(g3
g4
g4
tp1126
I111754
s(g4
g3
g3
tp1127
I542748
sg10
(g1121
g11
g12
tp1128
s(g4
g4
g4
tp1129
I37999
s(g4
g3
g4
tp1130
I47882
ssS'\xe7\xab\x8b\xe6\xb3\x95'
p1131
(dp1132
(g3
g4
g3
tp1133
I12992776
s(g4
g4
g3
tp1134
I211318
s(g3
g3
g4
tp1135
I3691893
s(g3
g4
g4
tp1136
I111754
s(g4
g3
g3
tp1137
I1032244
sg10
(g1131
g11
g12
tp1138
s(g4
g4
g4
tp1139
I59676
s(g4
g3
g4
tp1140
I82655
ssS'\xe6\x8e\xa8\xe8\xbf\x9b'
p1141
(dp1142
(g3
g4
g3
tp1143
I12992663
s(g4
g4
g3
tp1144
I773133
s(g3
g3
g4
tp1145
I3691890
s(g3
g4
g4
tp1146
I111754
s(g4
g3
g3
tp1147
I1619638
sg10
(g1141
g11
g12
tp1148
s(g4
g4
g4
tp1149
I82285
s(g4
g3
g4
tp1150
I141132
ssS'\xe9\xa2\x86\xe5\xaf\xbc\xe4\xba\xba\xe5\x91\x98'
p1151
(dp1152
(g3
g4
g3
tp1153
I12992776
s(g4
g4
g3
tp1154
I71157
s(g3
g3
g4
tp1155
I3691893
s(g3
g4
g4
tp1156
I111754
s(g4
g3
g3
tp1157
I5950
sg10
(g1151
g11
g12
tp1158
s(g4
g4
g4
tp1159
I9115
s(g4
g3
g4
tp1160
I4446
ssS'\xe5\x9b\xbd\xe5\xae\xb6'
p1161
(dp1162
(g28
g29
g28
tp1163
I22993781
s(g29
g29
g28
tp1164
I1848128
s(g28
g28
g29
tp1165
I3691879
s(g28
g29
g29
tp1166
I142922
s(g29
g28
g28
tp1167
I43401508
sg35
(g1161
g36
g37
tp1168
s(g29
g29
g29
tp1169
I154666
s(g29
g28
g29
tp1170
I595021
ssS'\xe4\xb8\xad\xe5\x9b\xbd\xe5\x85\xb1\xe4\xba\xa7\xe5\x85\x9a'
p1171
(dp1172
(g3
g4
g3
tp1173
I12992663
s(g4
g4
g3
tp1174
I168923
s(g3
g3
g4
tp1175
I3691890
s(g3
g4
g4
tp1176
I111754
s(g4
g3
g3
tp1177
I377355
sg10
(g1171
g11
g12
tp1178
s(g4
g4
g4
tp1179
I69345
s(g4
g3
g4
tp1180
I37744
ssS'\xe6\x89\xa7\xe6\x94\xbf'
p1181
(dp1182
(g3
g4
g3
tp1183
I12992663
s(g4
g4
g3
tp1184
I84519
s(g3
g3
g4
tp1185
I3691893
s(g3
g4
g4
tp1186
I111754
s(g4
g3
g3
tp1187
I1082750
sg10
(g1181
g11
g12
tp1188
s(g4
g4
g4
tp1189
I35539
s(g4
g3
g4
tp1190
I42234
ssS'\xe5\xb9\xb2\xe9\x83\xa8\xe9\x98\x9f\xe4\xbc\x8d'
p1191
(dp1192
(g63
g64
g63
tp1193
I12992849
s(g64
g64
g63
tp1194
I17394
s(g63
g63
g64
tp1195
I3691894
s(g63
g64
g64
tp1196
I111506
s(g64
g63
g63
tp1197
I25028
sg70
(g1191
g71
g72
tp1198
s(g64
g64
g64
tp1199
I21285
s(g64
g63
g64
tp1200
I9037
ssS'\xe5\x9d\x9a\xe6\x8c\x81'
p1201
(dp1202
(g63
g64
g63
tp1203
I12992746
s(g64
g64
g63
tp1204
I224127
s(g63
g63
g64
tp1205
I3691894
s(g63
g64
g64
tp1206
I111506
s(g64
g63
g63
tp1207
I2748030
sg70
(g1201
g71
g72
tp1208
s(g64
g64
g64
tp1209
I50344
s(g64
g63
g64
tp1210
I71806
ssS'\xe5\x85\xa8\xe5\x85\x9a\xe5\x85\xa8\xe5\x9b\xbd'
p1211
(dp1212
(g63
g64
g63
tp1213
I22993781
s(g64
g64
g63
tp1214
I16695
s(g63
g63
g64
tp1215
I3691879
s(g63
g64
g64
tp1216
I142934
s(g64
g63
g63
tp1217
I10019
sg70
(g1211
g71
g72
tp1218
s(g64
g64
g64
tp1219
I30507
s(g64
g63
g64
tp1220
I18290
ssS'\xe6\x8f\x90\xe9\xab\x98'
p1221
(dp1222
(g3
g4
g3
tp1223
I12992776
s(g4
g4
g3
tp1224
I1990467
s(g3
g3
g4
tp1225
I3691893
s(g3
g4
g4
tp1226
I111754
s(g4
g3
g3
tp1227
I2684910
sg10
(g1221
g11
g12
tp1228
s(g4
g4
g4
tp1229
I106755
s(g4
g3
g4
tp1230
I292951
ssS'\xe5\xae\xa1\xe8\xae\xae'
p1231
(dp1232
(g3
g4
g3
tp1233
I12992663
s(g4
g4
g3
tp1234
I98197
s(g3
g3
g4
tp1235
I3691894
s(g3
g4
g4
tp1236
I111754
s(g4
g3
g3
tp1237
I951208
sg10
(g1231
g11
g12
tp1238
s(g4
g4
g4
tp1239
I39977
s(g4
g3
g4
tp1240
I53023
ssS'\xe6\x94\xb9\xe8\xbf\x9b'
p1241
(dp1242
(g353
g354
g353
tp1243
I12992776
s(g354
g354
g353
tp1244
I332282
s(g353
g353
g354
tp1245
I3691890
s(g353
g354
g354
tp1246
I111754
s(g354
g353
g353
tp1247
I713085
sg360
(g1241
g361
g362
tp1248
s(g354
g354
g354
tp1249
I61397
s(g354
g353
g354
tp1250
I91226
ssS'\xe5\xae\x8c\xe5\x96\x84'
p1251
(dp1252
(g63
g64
g63
tp1253
I22993781
s(g64
g64
g63
tp1254
I316145
s(g63
g63
g64
tp1255
I3691879
s(g63
g64
g64
tp1256
I142922
s(g64
g63
g63
tp1257
I1228725
sg70
(g1251
g71
g72
tp1258
s(g64
g64
g64
tp1259
I73191
s(g64
g63
g64
tp1260
I73501
ssS'\xe5\x8f\x8d\xe5\xaf\xb9'
p1261
(dp1262
(g88
g89
g88
tp1263
I12992748
s(g89
g89
g88
tp1264
I578707
s(g88
g88
g89
tp1265
I3691891
s(g88
g89
g89
tp1266
I112223
s(g89
g88
g88
tp1267
I2445307
sg95
(g1261
g96
g97
tp1268
s(g89
g89
g89
tp1269
I40699
s(g89
g88
g89
tp1270
I80995
ssS'\xe5\xae\x9e\xe7\x8e\xb0'
p1271
(dp1272
(g3
g4
g3
tp1273
I12992663
s(g4
g4
g3
tp1274
I3059400
s(g3
g3
g4
tp1275
I3691894
s(g3
g4
g4
tp1276
I111754
s(g4
g3
g3
tp1277
I4356497
sg10
(g1271
g11
g12
tp1278
s(g4
g4
g4
tp1279
I111087
s(g4
g3
g4
tp1280
I116768
ssS'\xe5\x85\xa8\xe9\x9d\xa2'
p1281
(dp1282
(g3
g4
g3
tp1283
I12992663
s(g4
g4
g3
tp1284
I973107
s(g3
g3
g4
tp1285
I3691890
s(g3
g4
g4
tp1286
I111754
s(g4
g3
g3
tp1287
I3274143
sg10
(g1281
g11
g12
tp1288
s(g4
g4
g4
tp1289
I86142
s(g4
g3
g4
tp1290
I98565
ssS'\xe5\x9b\xbd\xe6\xb0\x91\xe7\xbb\x8f\xe6\xb5\x8e'
p1291
(dp1292
(g63
g64
g63
tp1293
I22993781
s(g64
g64
g63
tp1294
I678422
s(g63
g63
g64
tp1295
I3691879
s(g63
g64
g64
tp1296
I142922
s(g64
g63
g63
tp1297
I73989
sg70
(g1291
g71
g72
tp1298
s(g64
g64
g64
tp1299
I71019
s(g64
g63
g64
tp1300
I47417
ssS'\xe5\x86\x9c\xe6\x9d\x91'
p1301
(dp1302
(g63
g64
g63
tp1303
I12992849
s(g64
g64
g63
tp1304
I1129692
s(g63
g63
g64
tp1305
I3691894
s(g63
g64
g64
tp1306
I142934
s(g64
g63
g63
tp1307
I6366246
sg70
(g1301
g71
g72
tp1308
s(g64
g64
g64
tp1309
I60463
s(g64
g63
g64
tp1310
I179166
ssS'\xe9\xa2\x86\xe5\xaf\xbc'
p1311
(dp1312
(g88
g89
g88
tp1313
I12992748
s(g89
g89
g88
tp1314
I1385967
s(g88
g88
g89
tp1315
I3691891
s(g88
g89
g89
tp1316
I112223
s(g89
g88
g88
tp1317
I3264221
sg95
(g1311
g96
g97
tp1318
s(g89
g89
g89
tp1319
I77645
s(g89
g88
g89
tp1320
I196461
ssS'\xe4\xbb\xb7\xe5\x80\xbc\xe4\xbd\x93\xe7\xb3\xbb'
p1321
(dp1322
(g63
g64
g63
tp1323
I12992849
s(g64
g64
g63
tp1324
I8889
s(g63
g63
g64
tp1325
I3691894
s(g63
g64
g64
tp1326
I111506
s(g64
g63
g63
tp1327
I44481
sg70
(g1321
g71
g72
tp1328
s(g64
g64
g64
tp1329
I5482
s(g64
g63
g64
tp1330
I2174
ssS'\xe9\x87\x8d\xe8\xa6\x81'
p1331
(dp1332
(g3
g4
g3
tp1333
I12992776
s(g4
g4
g3
tp1334
I1135016
s(g3
g3
g4
tp1335
I3691890
s(g3
g4
g4
tp1336
I111754
s(g4
g3
g3
tp1337
I5225294
sg10
(g1331
g11
g12
tp1338
s(g4
g4
g4
tp1339
I100434
s(g4
g3
g4
tp1340
I195560
ssS'\xe9\xa9\xac\xe5\x85\x8b\xe6\x80\x9d\xe4\xb8\xbb\xe4\xb9\x89'
p1341
(dp1342
(g88
g89
g88
tp1343
I12992748
s(g89
g89
g88
tp1344
I158767
s(g88
g88
g89
tp1345
I3691891
s(g88
g89
g89
tp1346
I112223
s(g89
g88
g88
tp1347
I166949
sg95
(g1341
g96
g97
tp1348
s(g89
g89
g89
tp1349
I58659
s(g89
g88
g89
tp1350
I44141
ssS'\xe5\x85\xac\xe5\xb9\xb3\xe6\xad\xa3\xe4\xb9\x89'
p1351
(dp1352
(g88
g89
g88
tp1353
I12992748
s(g89
g89
g88
tp1354
I100292
s(g88
g88
g89
tp1355
I3691891
s(g88
g89
g89
tp1356
I112223
s(g89
g88
g88
tp1357
I257481
sg95
(g1351
g96
g97
tp1358
s(g89
g89
g89
tp1359
I70498
s(g89
g88
g89
tp1360
I34893
ssS'\xe4\xb8\xad\xe5\xa4\xae\xe6\x94\xbf\xe6\xb2\xbb\xe5\xb1\x80'
p1361
(dp1362
(g63
g64
g63
tp1363
I22993781
s(g64
g64
g63
tp1364
I103995
s(g63
g63
g64
tp1365
I3691879
s(g63
g64
g64
tp1366
I142922
s(g64
g63
g63
tp1367
I34279
sg70
(g1361
g71
g72
tp1368
s(g64
g64
g64
tp1369
I35040
s(g64
g63
g64
tp1370
I16558
ssS'\xe5\x85\xac\xe6\x9c\x89\xe5\x88\xb6'
p1371
(dp1372
(g28
g29
g28
tp1373
I22993781
s(g29
g29
g28
tp1374
I155835
s(g28
g28
g29
tp1375
I3691879
s(g28
g29
g29
tp1376
I142922
s(g29
g28
g28
tp1377
I393639
sg35
(g1371
g36
g37
tp1378
s(g29
g29
g29
tp1379
I38077
s(g29
g28
g29
tp1380
I51223
ssS'\xe5\x81\xa5\xe5\x85\xa8'
p1381
(dp1382
(g3
g4
g3
tp1383
I12992776
s(g4
g4
g3
tp1384
I98936
s(g3
g3
g4
tp1385
I3691893
s(g3
g4
g4
tp1386
I111754
s(g4
g3
g3
tp1387
I58075
sg10
(g1381
g11
g12
tp1388
s(g4
g4
g4
tp1389
I66204
s(g4
g3
g4
tp1390
I76823
ssS'\xe5\x8d\x81\xe4\xba\x94\xe5\xa4\xa7'
p1391
(dp1392
(g63
g64
g63
tp1393
I12992849
s(g64
g64
g63
tp1394
I5417
s(g63
g63
g64
tp1395
I3691894
s(g63
g64
g64
tp1396
I111754
s(g64
g63
g63
tp1397
I41809
sg70
(g1391
g71
g72
tp1398
s(g64
g64
g64
tp1399
I4407
s(g64
g63
g64
tp1400
I1948
ssS'\xe4\xb9\x9d\xe5\xb1\x8a\xe5\x85\xa8\xe5\x9b\xbd\xe4\xba\xba\xe5\xa4\xa7'
p1401
(dp1402
(g3
g4
g3
tp1403
I12992663
s(g4
g4
g3
tp1404
I37508
s(g3
g3
g4
tp1405
I3691890
s(g3
g4
g4
tp1406
I111754
s(g4
g3
g3
tp1407
I23583
sg10
(g1401
g11
g12
tp1408
s(g4
g4
g4
tp1409
I11772
s(g4
g3
g4
tp1410
I18133
ssS'\xe8\xbd\xac\xe5\x8f\x98'
p1411
(dp1412
(g63
g64
g63
tp1413
I12992849
s(g64
g64
g63
tp1414
I386248
s(g63
g63
g64
tp1415
I3691879
s(g63
g64
g64
tp1416
I142934
s(g64
g63
g63
tp1417
I1224738
sg70
(g1411
g71
g72
tp1418
s(g64
g64
g64
tp1419
I70777
s(g64
g63
g64
tp1420
I105831
ssS'\xe6\x8e\xa8\xe5\x8a\xa8'
p1421
(dp1422
(g63
g64
g63
tp1423
I22993781
s(g64
g64
g63
tp1424
I450365
s(g63
g63
g64
tp1425
I3691879
s(g63
g64
g64
tp1426
I142922
s(g64
g63
g63
tp1427
I1857751
sg70
(g1421
g71
g72
tp1428
s(g64
g64
g64
tp1429
I84149
s(g64
g63
g64
tp1430
I153053
ssS'\xe6\xb3\x95\xe6\xb2\xbb'
p1431
(dp1432
(g3
g4
g3
tp1433
I12992663
s(g4
g4
g3
tp1434
I255575
s(g3
g3
g4
tp1435
I3691890
s(g3
g4
g4
tp1436
I111754
s(g4
g3
g3
tp1437
I1549854
sg10
(g1431
g11
g12
tp1438
s(g4
g4
g4
tp1439
I58652
s(g4
g3
g4
tp1440
I74998
ssS'\xe5\x8f\x91\xe5\xb1\x95'
p1441
(dp1442
(g3
g4
g3
tp1443
I12992776
s(g4
g4
g3
tp1444
I3284430
s(g3
g3
g4
tp1445
I3691893
s(g3
g4
g4
tp1446
I111754
s(g4
g3
g3
tp1447
I10610914
sg10
(g1441
g11
g12
tp1448
s(g4
g4
g4
tp1449
I135969
s(g4
g3
g4
tp1450
I39644882
ssS'\xe6\x8a\x97\xe7\x81\xbe\xe6\x95\x91\xe7\x81\xbe'
p1451
(dp1452
(g63
g64
g63
tp1453
I22993781
s(g64
g64
g63
tp1454
I67845
s(g63
g63
g64
tp1455
I3691894
s(g63
g64
g64
tp1456
I142922
s(g64
g63
g63
tp1457
I97791
sg70
(g1451
g71
g72
tp1458
s(g64
g64
g64
tp1459
I27656
s(g64
g63
g64
tp1460
I35121
ss.