(dp0
S'\xe4\xbe\x9d\xe6\xb3\x95'
p1
(dp2
(S'?'
p3
S'+'
p4
g3
tp5
I209248
s(g4
g4
g3
tp6
I22582
s(g3
g3
g4
tp7
I1794217
s(g3
g4
g4
tp8
I8553
s(g4
g3
g3
tp9
I327119
sS'words'
p10
(g1
S'\xe6\x81\x90\xe6\x80\x96\xe4\xb8\xbb\xe4\xb9\x89'
p11
S'\xe5\xad\x94\xe5\xad\x90'
p12
tp13
s(g4
g4
g4
tp14
I18280
s(g4
g3
g4
tp15
I39261
ssS'\xe8\xae\xb8\xe8\xbf\x90\xe9\xb8\xbf'
p16
(dp17
(g3
g4
g3
tp18
I209248
s(g4
g4
g3
tp19
I255
s(g3
g3
g4
tp20
I1794217
s(g3
g4
g4
tp21
I8553
s(g4
g3
g3
tp22
I4377
sg10
(g16
g11
g12
tp23
s(g4
g4
g4
tp24
I48
s(g4
g3
g4
tp25
I2199
ssS'\xe7\xbb\x8f\xe8\x90\xa5\xe7\xae\xa1\xe7\x90\x86\xe8\x80\x85'
p26
(dp27
(g3
g4
g3
tp28
I216304
s(g4
g4
g3
tp29
I2339
s(g3
g3
g4
tp30
I1794217
s(g3
g4
g4
tp31
I8553
s(g4
g3
g3
tp32
I110293
sg10
(g26
g11
g12
tp33
s(g4
g4
g4
tp34
I156
s(g4
g3
g4
tp35
I4533
ssS'\xe5\x85\xa8\xe5\x85\x9a'
p36
(dp37
(g3
g4
g3
tp38
I209248
s(g4
g4
g3
tp39
I13131
s(g3
g3
g4
tp40
I1794217
s(g3
g4
g4
tp41
I8553
s(g4
g3
g3
tp42
I69525
sg10
(g36
g11
g12
tp43
s(g4
g4
g4
tp44
I6851
s(g4
g3
g4
tp45
I50513
ssS'\xe7\xac\xac\xe5\x8d\x81\xe5\x85\xad\xe6\xac\xa1'
p46
(dp47
(g3
g4
g3
tp48
I209249
s(g4
g4
g3
tp49
I1041
s(g3
g3
g4
tp50
I1794217
s(g3
g4
g4
tp51
I8553
s(g4
g3
g3
tp52
I9975
sg10
(g46
g11
g12
tp53
s(g4
g4
g4
tp54
I600
s(g4
g3
g4
tp55
I1042
ssS'\xe5\xb8\x82\xe5\x9c\xba'
p56
(dp57
(g3
g4
g3
tp58
I216304
s(g4
g4
g3
tp59
I34362
s(g3
g3
g4
tp60
I1794217
s(g3
g4
g4
tp61
I8553
s(g4
g3
g3
tp62
I15551898
sg10
(g56
g11
g12
tp63
s(g4
g4
g4
tp64
I23914
s(g4
g3
g4
tp65
I58717
ssS'\xe5\xb0\xb1\xe4\xb8\x9a'
p66
(dp67
(g3
g4
g3
tp68
I209249
s(g4
g4
g3
tp69
I16077
s(g3
g3
g4
tp70
I1794217
s(g3
g4
g4
tp71
I8553
s(g4
g3
g3
tp72
I2822916
sg10
(g66
g11
g12
tp73
s(g4
g4
g4
tp74
I21112
s(g4
g3
g4
tp75
I36252
ssS'\xe5\x85\xa8\xe5\x9b\xbd\xe4\xba\xba\xe5\xa4\xa7'
p76
(dp77
(g3
g4
g3
tp78
I209249
s(g4
g4
g3
tp79
I25408
s(g3
g3
g4
tp80
I1794223
s(g3
g4
g4
tp81
I8553
s(g4
g3
g3
tp82
I525518
sg10
(g76
g11
g12
tp83
s(g4
g4
g4
tp84
I11021
s(g4
g3
g4
tp85
I25138
ssS'\xe5\x88\xb6\xe5\xba\xa6'
p86
(dp87
(g3
g4
g3
tp88
I209248
s(g4
g4
g3
tp89
I28693
s(g3
g3
g4
tp90
I1794217
s(g3
g4
g4
tp91
I8553
s(g4
g3
g3
tp92
I3383522
sg10
(g86
g11
g12
tp93
s(g4
g4
g4
tp94
I21117
s(g4
g3
g4
tp95
I93264
ssS'\xe6\x96\xb9\xe5\xbc\x8f'
p96
(dp97
(g3
g4
g3
tp98
I209248
s(g4
g4
g3
tp99
I37376
s(g3
g3
g4
tp100
I1794217
s(g3
g4
g4
tp101
I8553
s(g4
g3
g3
tp102
I3453823
sg10
(g96
g11
g12
tp103
s(g4
g4
g4
tp104
I21699
s(g4
g3
g4
tp105
I93209
ssS'\xe6\x94\xb9\xe9\x9d\xa9'
p106
(dp107
(g3
g4
g3
tp108
I209248
s(g4
g4
g3
tp109
I29767
s(g3
g3
g4
tp110
I1794217
s(g3
g4
g4
tp111
I8553
s(g4
g3
g3
tp112
I3107067
sg10
(g106
g11
g12
tp113
s(g4
g4
g4
tp114
I25099
s(g4
g3
g4
tp115
I66150
ssS'\xe7\xbe\xa4\xe4\xbc\x97'
p116
(dp117
(g3
g4
g3
tp118
I216304
s(g4
g4
g3
tp119
I10575
s(g3
g3
g4
tp120
I1794217
s(g3
g4
g4
tp121
I8553
s(g4
g3
g3
tp122
I328242
sg10
(g116
g11
g12
tp123
s(g4
g4
g4
tp124
I23716
s(g4
g3
g4
tp125
I57050
ssS'\xe4\xb8\x80\xe6\xac\xa1'
p126
(dp127
(g3
g4
g3
tp128
I209248
s(g4
g4
g3
tp129
I38759
s(g3
g3
g4
tp130
I1794217
s(g3
g4
g4
tp131
I8553
s(g4
g3
g3
tp132
I5657188
sg10
(g126
g11
g12
tp133
s(g4
g4
g4
tp134
I10729
s(g4
g3
g4
tp135
I123432
ssS'\xe7\xb9\x81\xe8\x8d\xa3'
p136
(dp137
(g3
g4
g3
tp138
I216304
s(g4
g4
g3
tp139
I20966
s(g3
g3
g4
tp140
I1794217
s(g3
g4
g4
tp141
I8553
s(g4
g3
g3
tp142
I148379
sg10
(g136
g11
g12
tp143
s(g4
g4
g4
tp144
I30484
s(g4
g3
g4
tp145
I60966
ssS'\xe5\x9f\x8e\xe4\xb9\xa1'
p146
(dp147
(g3
g4
g3
tp148
I209248
s(g4
g4
g3
tp149
I14783
s(g3
g3
g4
tp150
I1794217
s(g3
g4
g4
tp151
I8553
s(g4
g3
g3
tp152
I665761
sg10
(g146
g11
g12
tp153
s(g4
g4
g4
tp154
I14593
s(g4
g3
g4
tp155
I45153
ssS'\xe6\x80\x9d\xe6\x83\xb3'
p156
(dp157
(g3
g4
g3
tp158
I216304
s(g4
g4
g3
tp159
I8420
s(g3
g3
g4
tp160
I1794217
s(g3
g4
g4
tp161
I8553
s(g4
g3
g3
tp162
I2624196
sg10
(g156
g11
g12
tp163
s(g4
g4
g4
tp164
I19943
s(g4
g3
g4
tp165
I161001
ssS'\xe7\x8e\xb0\xe4\xbb\xa3\xe5\x8c\x96'
p166
(dp167
(g3
g4
g3
tp168
I209248
s(g4
g4
g3
tp169
I21996
s(g3
g3
g4
tp170
I1794217
s(g3
g4
g4
tp171
I8553
s(g4
g3
g3
tp172
I4431578
sg10
(g166
g11
g12
tp173
s(g4
g4
g4
tp174
I26318
s(g4
g3
g4
tp175
I74982
ssS'\xe6\x9c\xba\xe5\x88\xb6'
p176
(dp177
(g3
g4
g3
tp178
I216304
s(g4
g4
g3
tp179
I34704
s(g3
g3
g4
tp180
I1794217
s(g3
g4
g4
tp181
I8553
s(g4
g3
g3
tp182
I1753482
sg10
(g176
g11
g12
tp183
s(g4
g4
g4
tp184
I23413
s(g4
g3
g4
tp185
I62184
ssS'\xe4\xb8\xad\xe5\xa4\xae\xe5\xa7\x94\xe5\x91\x98\xe4\xbc\x9a'
p186
(dp187
(g3
g4
g3
tp188
I209249
s(g4
g4
g3
tp189
I3788
s(g3
g3
g4
tp190
I1794223
s(g3
g4
g4
tp191
I8553
s(g4
g3
g3
tp192
I24921
sg10
(g186
g11
g12
tp193
s(g4
g4
g4
tp194
I1454
s(g4
g3
g4
tp195
I5899
ssS'\xe5\x92\x8c\xe8\xb0\x90\xe7\xa4\xbe\xe4\xbc\x9a'
p196
(dp197
(g3
g4
g3
tp198
I209248
s(g4
g4
g3
tp199
I4270
s(g3
g3
g4
tp200
I1794223
s(g3
g4
g4
tp201
I8553
s(g4
g3
g3
tp202
I122999
sg10
(g196
g11
g12
tp203
s(g4
g4
g4
tp204
I6570
s(g4
g3
g4
tp205
I14388
ssS'\xe4\xbd\x93\xe7\xb3\xbb'
p206
(dp207
(g3
g4
g3
tp208
I216304
s(g4
g4
g3
tp209
I19797
s(g3
g3
g4
tp210
I1794217
s(g3
g4
g4
tp211
I8553
s(g4
g3
g3
tp212
I2881197
sg10
(g206
g11
g12
tp213
s(g4
g4
g4
tp214
I22698
s(g4
g3
g4
tp215
I68245
ssS'\xe5\x86\x9b\xe9\x98\x9f'
p216
(dp217
(g3
g4
g3
tp218
I216304
s(g4
g4
g3
tp219
I32105
s(g3
g3
g4
tp220
I1794217
s(g3
g4
g4
tp221
I8553
s(g4
g3
g3
tp222
I117207
sg10
(g216
g11
g12
tp223
s(g4
g4
g4
tp224
I13514
s(g4
g3
g4
tp225
I61357
ssS'\xe6\xb7\xb1\xe5\x8c\x96'
p226
(dp227
(g3
g4
g3
tp228
I209248
s(g4
g4
g3
tp229
I24322
s(g3
g3
g4
tp230
I1794217
s(g3
g4
g4
tp231
I8553
s(g4
g3
g3
tp232
I1091760
sg10
(g226
g11
g12
tp233
s(g4
g4
g4
tp234
I21844
s(g4
g3
g4
tp235
I46374
ssS'\xe5\x8a\xa0\xe5\xbf\xab'
p236
(dp237
(g3
g4
g3
tp238
I216304
s(g4
g4
g3
tp239
I20450
s(g3
g3
g4
tp240
I1794217
s(g3
g4
g4
tp241
I8553
s(g4
g3
g3
tp242
I2196372
sg10
(g236
g11
g12
tp243
s(g4
g4
g4
tp244
I22694
s(g4
g3
g4
tp245
I44359
ssS'\xe5\x8d\x81\xe5\x85\xad\xe5\xa4\xa7'
p246
(dp247
(g3
g4
g3
tp248
I216304
s(g4
g4
g3
tp249
I16516
s(g3
g3
g4
tp250
I1794217
s(g3
g4
g4
tp251
I8553
s(g4
g3
g3
tp252
I35829
sg10
(g246
g11
g12
tp253
s(g4
g4
g4
tp254
I4828
s(g4
g3
g4
tp255
I32678
ssS'\xe4\xbf\x83\xe8\xbf\x9b'
p256
(dp257
(g3
g4
g3
tp258
I209248
s(g4
g4
g3
tp259
I28818
s(g3
g3
g4
tp260
I1794217
s(g3
g4
g4
tp261
I8553
s(g4
g3
g3
tp262
I1462010
sg10
(g256
g11
g12
tp263
s(g4
g4
g4
tp264
I27707
s(g4
g3
g4
tp265
I64297
ssS'\xe6\x94\xbf\xe6\xb2\xbb\xe6\x96\x87\xe6\x98\x8e'
p266
(dp267
(g3
g4
g3
tp268
I216304
s(g4
g4
g3
tp269
I2377
s(g3
g3
g4
tp270
I1794217
s(g3
g4
g4
tp271
I8553
s(g4
g3
g3
tp272
I23860
sg10
(g266
g11
g12
tp273
s(g4
g4
g4
tp274
I2210
s(g4
g3
g4
tp275
I1918
ssS'\xe5\x8d\x8f\xe8\xb0\x83'
p276
(dp277
(g3
g4
g3
tp278
I209248
s(g4
g4
g3
tp279
I25300
s(g3
g3
g4
tp280
I1794217
s(g3
g4
g4
tp281
I8553
s(g4
g3
g3
tp282
I260524
sg10
(g276
g11
g12
tp283
s(g4
g4
g4
tp284
I29075
s(g4
g3
g4
tp285
I57701
ssS'\xe5\xb9\xb2\xe9\x83\xa8\xe9\x98\x9f\xe4\xbc\x8d'
p286
(dp287
(g3
g4
g3
tp288
I216304
s(g4
g4
g3
tp289
I4670
s(g3
g3
g4
tp290
I1794217
s(g3
g4
g4
tp291
I8553
s(g4
g3
g3
tp292
I25187
sg10
(g286
g11
g12
tp293
s(g4
g4
g4
tp294
I2161
s(g4
g3
g4
tp295
I10587
ssS'\xe6\x95\x99\xe8\x82\xb2'
p296
(dp297
(g3
g4
g3
tp298
I216304
s(g4
g4
g3
tp299
I30211
s(g3
g3
g4
tp300
I1794217
s(g3
g4
g4
tp301
I8553
s(g4
g3
g3
tp302
I55394782
sg10
(g296
g11
g12
tp303
s(g4
g4
g4
tp304
I15624
s(g4
g3
g4
tp305
I247018
ssS'\xe5\x8d\x81\xe4\xba\x8c\xe5\xb1\x8a'
p306
(dp307
(g3
g4
g3
tp308
I209249
s(g4
g4
g3
tp309
I15850
s(g3
g3
g4
tp310
I1794223
s(g3
g4
g4
tp311
I8553
s(g4
g3
g3
tp312
I239177
sg10
(g306
g11
g12
tp313
s(g4
g4
g4
tp314
I3064
s(g4
g3
g4
tp315
I6343
ssS'\xe7\xbb\x8f\xe6\xb5\x8e\xe4\xbd\x93\xe5\x88\xb6'
p316
(dp317
(g3
g4
g3
tp318
I216304
s(g4
g4
g3
tp319
I5947
s(g3
g3
g4
tp320
I1794217
s(g3
g4
g4
tp321
I8553
s(g4
g3
g3
tp322
I23487
sg10
(g316
g11
g12
tp323
s(g4
g4
g4
tp324
I5784
s(g4
g3
g4
tp325
I10454
ssS'\xe6\x88\x98\xe7\x95\xa5'
p326
(dp327
(g3
g4
g3
tp328
I209248
s(g4
g4
g3
tp329
I18893
s(g3
g3
g4
tp330
I1794217
s(g3
g4
g4
tp331
I8553
s(g4
g3
g3
tp332
I3338434
sg10
(g326
g11
g12
tp333
s(g4
g4
g4
tp334
I25649
s(g4
g3
g4
tp335
I57779
ssS'\xe7\x94\x9f\xe4\xba\xa7\xe5\x8a\x9b'
p336
(dp337
(g3
g4
g3
tp338
I209249
s(g4
g4
g3
tp339
I13882
s(g3
g3
g4
tp340
I1794223
s(g3
g4
g4
tp341
I8553
s(g4
g3
g3
tp342
I85651
sg10
(g336
g11
g12
tp343
s(g4
g4
g4
tp344
I13368
s(g4
g3
g4
tp345
I60679
ssS'\xe4\xbc\x9f\xe5\xa4\xa7\xe6\x97\x97\xe5\xb8\x9c'
p346
(dp347
(g3
g4
g3
tp348
I216304
s(g4
g4
g3
tp349
I5445
s(g3
g3
g4
tp350
I1794217
s(g3
g4
g4
tp351
I8553
s(g4
g3
g3
tp352
I8030
sg10
(g346
g11
g12
tp353
s(g4
g4
g4
tp354
I2040
s(g4
g3
g4
tp355
I6732
ssS'\xe5\x85\x9a\xe7\x9a\x84\xe5\xbb\xba\xe8\xae\xbe'
p356
(dp357
(g3
g4
g3
tp358
I216304
s(g4
g4
g3
tp359
I15783
s(g3
g3
g4
tp360
I1794217
s(g3
g4
g4
tp361
I8553
s(g4
g3
g3
tp362
I264127
sg10
(g356
g11
g12
tp363
s(g4
g4
g4
tp364
I13403
s(g4
g3
g4
tp365
I60724
ssS'\xe5\xa2\x9e\xe5\xbc\xba'
p366
(dp367
(g3
g4
g3
tp368
I209249
s(g4
g4
g3
tp369
I30453
s(g3
g3
g4
tp370
I1794217
s(g3
g4
g4
tp371
I8553
s(g4
g3
g3
tp372
I5162385
sg10
(g366
g11
g12
tp373
s(g4
g4
g4
tp374
I15987
s(g4
g3
g4
tp375
I64554
ssS'\xe5\x88\x9b\xe6\x96\xb0'
p376
(dp377
(g3
g4
g3
tp378
I209248
s(g4
g4
g3
tp379
I14765
s(g3
g3
g4
tp380
I1794217
s(g3
g4
g4
tp381
I8553
s(g4
g3
g3
tp382
I2835398
sg10
(g376
g11
g12
tp383
s(g4
g4
g4
tp384
I26620
s(g4
g3
g4
tp385
I58634
ssS'\xe5\x90\x8c\xe5\xbf\x97'
p386
(dp387
(g3
g4
g3
tp388
I209249
s(g4
g4
g3
tp389
I6073
s(g3
g3
g4
tp390
I1794217
s(g3
g4
g4
tp391
I8553
s(g4
g3
g3
tp392
I811438
sg10
(g386
g11
g12
tp393
s(g4
g4
g4
tp394
I10969
s(g4
g3
g4
tp395
I54629
ssS'\xe8\x81\x8c\xe8\x83\xbd'
p396
(dp397
(g3
g4
g3
tp398
I209248
s(g4
g4
g3
tp399
I24415
s(g3
g3
g4
tp400
I1794217
s(g3
g4
g4
tp401
I8553
s(g4
g3
g3
tp402
I722277
sg10
(g396
g11
g12
tp403
s(g4
g4
g4
tp404
I14784
s(g4
g3
g4
tp405
I43528
ssS'\xe5\x86\x9c\xe6\xb0\x91'
p406
(dp407
(g3
g4
g3
tp408
I209249
s(g4
g4
g3
tp409
I7616
s(g3
g3
g4
tp410
I1794223
s(g3
g4
g4
tp411
I8553
s(g4
g3
g3
tp412
I910292
sg10
(g406
g11
g12
tp413
s(g4
g4
g4
tp414
I14380
s(g4
g3
g4
tp415
I66411
ssS'\xe5\x85\xa8\xe5\x9b\xbd\xe6\x94\xbf\xe5\x8d\x8f'
p416
(dp417
(g3
g4
g3
tp418
I209249
s(g4
g4
g3
tp419
I14822
s(g3
g3
g4
tp420
I1794217
s(g3
g4
g4
tp421
I8553
s(g4
g3
g3
tp422
I54979
sg10
(g416
g11
g12
tp423
s(g4
g4
g4
tp424
I5510
s(g4
g3
g4
tp425
I26121
ssS'\xe5\x8d\x81\xe5\xb1\x8a'
p426
(dp427
(g3
g4
g3
tp428
I209248
s(g4
g4
g3
tp429
I3686
s(g3
g3
g4
tp430
I1794217
s(g3
g4
g4
tp431
I8553
s(g4
g3
g3
tp432
I275678
sg10
(g426
g11
g12
tp433
s(g4
g4
g4
tp434
I2212
s(g4
g3
g4
tp435
I5940
ssS'\xe5\x8a\xa0\xe5\xbc\xba'
p436
(dp437
(g3
g4
g3
tp438
I209248
s(g4
g4
g3
tp439
I47384
s(g3
g3
g4
tp440
I1794217
s(g3
g4
g4
tp441
I8553
s(g4
g3
g3
tp442
I4047997
sg10
(g436
g11
g12
tp443
s(g4
g4
g4
tp444
I22096
s(g4
g3
g4
tp445
I60913
ssS'\xe9\x82\x93\xe5\xb0\x8f\xe5\xb9\xb3\xe7\x90\x86\xe8\xae\xba'
p446
(dp447
(g3
g4
g3
tp448
I216304
s(g4
g4
g3
tp449
I5741
s(g3
g3
g4
tp450
I1794217
s(g3
g4
g4
tp451
I8553
s(g4
g3
g3
tp452
I451296
sg10
(g446
g11
g12
tp453
s(g4
g4
g4
tp454
I4152
s(g4
g3
g4
tp455
I22548
ssS'\xe4\xb8\x89\xe4\xb8\xaa\xe4\xbb\xa3\xe8\xa1\xa8'
p456
(dp457
(g3
g4
g3
tp458
I209249
s(g4
g4
g3
tp459
I15823
s(g3
g3
g4
tp460
I1794223
s(g3
g4
g4
tp461
I8553
s(g4
g3
g3
tp462
I19038
sg10
(g456
g11
g12
tp463
s(g4
g4
g4
tp464
I8226
s(g4
g3
g4
tp465
I4621
ssS'\xe5\x8f\x91\xe5\xb1\x95\xe8\xa7\x82'
p466
(dp467
(g3
g4
g3
tp468
I216304
s(g4
g4
g3
tp469
I16978
s(g3
g3
g4
tp470
I1794217
s(g3
g4
g4
tp471
I8553
s(g4
g3
g3
tp472
I105383
sg10
(g466
g11
g12
tp473
s(g4
g4
g4
tp474
I12813
s(g4
g3
g4
tp475
I54056
ssS'\xe4\xb9\x9d\xe5\xb1\x8a'
p476
(dp477
(g3
g4
g3
tp478
I216304
s(g4
g4
g3
tp479
I5885
s(g3
g3
g4
tp480
I1794217
s(g3
g4
g4
tp481
I8553
s(g4
g3
g3
tp482
I57402
sg10
(g476
g11
g12
tp483
s(g4
g4
g4
tp484
I1843
s(g4
g3
g4
tp485
I8166
ssS'\xe5\x8d\x81\xe4\xb8\x80\xe5\xb1\x8a'
p486
(dp487
(g3
g4
g3
tp488
I216304
s(g4
g4
g3
tp489
I17690
s(g3
g3
g4
tp490
I1794217
s(g3
g4
g4
tp491
I8553
s(g4
g3
g3
tp492
I294961
sg10
(g486
g11
g12
tp493
s(g4
g4
g4
tp494
I10432
s(g4
g3
g4
tp495
I19916
ssS'\xe5\xa7\x8b\xe7\xbb\x88'
p496
(dp497
(g3
g4
g3
tp498
I216304
s(g4
g4
g3
tp499
I10572
s(g3
g3
g4
tp500
I1794217
s(g3
g4
g4
tp501
I8553
s(g4
g3
g3
tp502
I1445125
sg10
(g496
g11
g12
tp503
s(g4
g4
g4
tp504
I22965
s(g4
g3
g4
tp505
I69082
ssS'\xe7\xbb\x9f\xe7\xad\xb9'
p506
(dp507
(g3
g4
g3
tp508
I209248
s(g4
g4
g3
tp509
I19369
s(g3
g3
g4
tp510
I1794217
s(g3
g4
g4
tp511
I8553
s(g4
g3
g3
tp512
I107118
sg10
(g506
g11
g12
tp513
s(g4
g4
g4
tp514
I10801
s(g4
g3
g4
tp515
I47719
ssS'\xe7\xac\xac\xe5\x8d\x81\xe5\x85\xad\xe5\xb1\x8a'
p516
(dp517
(g3
g4
g3
tp518
I216304
s(g4
g4
g3
tp519
I8303
s(g3
g3
g4
tp520
I1794217
s(g3
g4
g4
tp521
I8553
s(g4
g3
g3
tp522
I85932
sg10
(g516
g11
g12
tp523
s(g4
g4
g4
tp524
I2896
s(g4
g3
g4
tp525
I16373
ssS'\xe5\xbf\x85\xe9\xa1\xbb'
p526
(dp527
(g3
g4
g3
tp528
I216304
s(g4
g4
g3
tp529
I39000
s(g3
g3
g4
tp530
I1794217
s(g3
g4
g4
tp531
I8553
s(g4
g3
g3
tp532
I1605497
sg10
(g526
g11
g12
tp533
s(g4
g4
g4
tp534
I23674
s(g4
g3
g4
tp535
I77073
ssS'\xe8\xa1\x8c\xe6\x94\xbf'
p536
(dp537
(g3
g4
g3
tp538
I209248
s(g4
g4
g3
tp539
I15611
s(g3
g3
g4
tp540
I1794217
s(g3
g4
g4
tp541
I8553
s(g4
g3
g3
tp542
I2014689
sg10
(g536
g11
g12
tp543
s(g4
g4
g4
tp544
I25957
s(g4
g3
g4
tp545
I57496
ssS'\xe5\x86\x9c\xe4\xb8\x9a'
p546
(dp547
(g3
g4
g3
tp548
I209248
s(g4
g4
g3
tp549
I15131
s(g3
g3
g4
tp550
I1794217
s(g3
g4
g4
tp551
I8553
s(g4
g3
g3
tp552
I5642639
sg10
(g546
g11
g12
tp553
s(g4
g4
g4
tp554
I20775
s(g4
g3
g4
tp555
I74421
ssS'\xe6\x9e\x84\xe5\xbb\xba'
p556
(dp557
(g3
g4
g3
tp558
I209248
s(g4
g4
g3
tp559
I23287
s(g3
g3
g4
tp560
I1794217
s(g3
g4
g4
tp561
I8553
s(g4
g3
g3
tp562
I932345
sg10
(g556
g11
g12
tp563
s(g4
g4
g4
tp564
I14195
s(g4
g3
g4
tp565
I79873
ssS'\xe4\xbd\x9c\xe9\xa3\x8e'
p566
(dp567
(g3
g4
g3
tp568
I209249
s(g4
g4
g3
tp569
I4940
s(g3
g3
g4
tp570
I1794217
s(g3
g4
g4
tp571
I8553
s(g4
g3
g3
tp572
I1765682
sg10
(g566
g11
g12
tp573
s(g4
g4
g4
tp574
I7126
s(g4
g3
g4
tp575
I54956
ssS'\xe4\xbc\x81\xe4\xb8\x9a'
p576
(dp577
(g3
g4
g3
tp578
I209249
s(g4
g4
g3
tp579
I29891
s(g3
g3
g4
tp580
I1794223
s(g3
g4
g4
tp581
I8553
s(g4
g3
g3
tp582
I27530974
sg10
(g576
g11
g12
tp583
s(g4
g4
g4
tp584
I26042
s(g4
g3
g4
tp585
I110574
ssS'\xe5\x8f\xb8\xe6\xb3\x95'
p586
(dp587
(g3
g4
g3
tp588
I209248
s(g4
g4
g3
tp589
I21561
s(g3
g3
g4
tp590
I1794217
s(g3
g4
g4
tp591
I8553
s(g4
g3
g3
tp592
I958127
sg10
(g586
g11
g12
tp593
s(g4
g4
g4
tp594
I16895
s(g4
g3
g4
tp595
I41643
ssS'\xe4\xba\x8b\xe4\xb8\x9a'
p596
(dp597
(g3
g4
g3
tp598
I209248
s(g4
g4
g3
tp599
I9810
s(g3
g3
g4
tp600
I1794223
s(g3
g4
g4
tp601
I8553
s(g4
g3
g3
tp602
I12139724
sg10
(g596
g11
g12
tp603
s(g4
g4
g4
tp604
I18569
s(g4
g3
g4
tp605
I89185
ssS'\xe7\x89\xb9\xe8\x89\xb2'
p606
(dp607
(g3
g4
g3
tp608
I216304
s(g4
g4
g3
tp609
I14622
s(g3
g3
g4
tp610
I1794217
s(g3
g4
g4
tp611
I8553
s(g4
g3
g3
tp612
I7437755
sg10
(g606
g11
g12
tp613
s(g4
g4
g4
tp614
I19492
s(g4
g3
g4
tp615
I64965
ssS'\xe4\xba\xba\xe6\xb0\x91'
p616
(dp617
(g3
g4
g3
tp618
I209249
s(g4
g4
g3
tp619
I23134
s(g3
g3
g4
tp620
I1794223
s(g3
g4
g4
tp621
I8553
s(g4
g3
g3
tp622
I15025289
sg10
(g616
g11
g12
tp623
s(g4
g4
g4
tp624
I18844
s(g4
g3
g4
tp625
I172713
ssS'\xe7\xb2\xbe\xe7\xa5\x9e'
p626
(dp627
(g3
g4
g3
tp628
I209249
s(g4
g4
g3
tp629
I8071
s(g3
g3
g4
tp630
I1794223
s(g3
g4
g4
tp631
I8553
s(g4
g3
g3
tp632
I1787095
sg10
(g626
g11
g12
tp633
s(g4
g4
g4
tp634
I22392
s(g4
g3
g4
tp635
I68380
ssS'\xe5\x90\x8d\xe5\x8d\x95'
p636
(dp637
(g3
g4
g3
tp638
I216304
s(g4
g4
g3
tp639
I23331
s(g3
g3
g4
tp640
I1794217
s(g3
g4
g4
tp641
I8553
s(g4
g3
g3
tp642
I8497223
sg10
(g636
g11
g12
tp643
s(g4
g4
g4
tp644
I6403
s(g4
g3
g4
tp645
I27986
ssS'\xe5\x8d\x81\xe4\xb8\x83'
p646
(dp647
(g3
g4
g3
tp648
I216304
s(g4
g4
g3
tp649
I11796
s(g3
g3
g4
tp650
I1794217
s(g3
g4
g4
tp651
I8553
s(g4
g3
g3
tp652
I524585
sg10
(g646
g11
g12
tp653
s(g4
g4
g4
tp654
I13941
s(g4
g3
g4
tp655
I87498
ssS'\xe4\xbd\x93\xe5\x88\xb6'
p656
(dp657
(g3
g4
g3
tp658
I216304
s(g4
g4
g3
tp659
I21841
s(g3
g3
g4
tp660
I1794217
s(g3
g4
g4
tp661
I8553
s(g4
g3
g3
tp662
I2771940
sg10
(g656
g11
g12
tp663
s(g4
g4
g4
tp664
I22613
s(g4
g3
g4
tp665
I60760
ssS'\xe5\x92\x8c\xe8\xb0\x90'
p666
(dp667
(g3
g4
g3
tp668
I216304
s(g4
g4
g3
tp669
I12421
s(g3
g3
g4
tp670
I1794217
s(g3
g4
g4
tp671
I8553
s(g4
g3
g3
tp672
I634147
sg10
(g666
g11
g12
tp673
s(g4
g4
g4
tp674
I25549
s(g4
g3
g4
tp675
I66805
ssS'\xe6\xb0\x91\xe4\xb8\xbb'
p676
(dp677
(g3
g4
g3
tp678
I209248
s(g4
g4
g3
tp679
I13672
s(g3
g3
g4
tp680
I1794217
s(g3
g4
g4
tp681
I8553
s(g4
g3
g3
tp682
I768378
sg10
(g676
g11
g12
tp683
s(g4
g4
g4
tp684
I22440
s(g4
g3
g4
tp685
I63822
ssS'\xe6\x94\xbf\xe6\xb2\xbb'
p686
(dp687
(g3
g4
g3
tp688
I216304
s(g4
g4
g3
tp689
I23656
s(g3
g3
g4
tp690
I1794217
s(g3
g4
g4
tp691
I8553
s(g4
g3
g3
tp692
I9631041
sg10
(g686
g11
g12
tp693
s(g4
g4
g4
tp694
I23102
s(g4
g3
g4
tp695
I104548
ssS'\xe6\x96\x87\xe5\x8c\x96'
p696
(dp697
(g3
g4
g3
tp698
I209249
s(g4
g4
g3
tp699
I32348
s(g3
g3
g4
tp700
I1794217
s(g3
g4
g4
tp701
I8553
s(g4
g3
g3
tp702
I6051413
sg10
(g696
g11
g12
tp703
s(g4
g4
g4
tp704
I18694
s(g4
g3
g4
tp705
I280085
ssS'\xe4\xbf\x9d\xe6\x8c\x81'
p706
(dp707
(g3
g4
g3
tp708
I209248
s(g4
g4
g3
tp709
I22568
s(g3
g3
g4
tp710
I1794217
s(g3
g4
g4
tp711
I8553
s(g4
g3
g3
tp712
I821810
sg10
(g706
g11
g12
tp713
s(g4
g4
g4
tp714
I25027
s(g4
g3
g4
tp715
I62408
ssS'\xe5\xae\x9e\xe6\x96\xbd'
p716
(dp717
(g3
g4
g3
tp718
I209248
s(g4
g4
g3
tp719
I44757
s(g3
g3
g4
tp720
I1794217
s(g3
g4
g4
tp721
I8553
s(g4
g3
g3
tp722
I865858
sg10
(g716
g11
g12
tp723
s(g4
g4
g4
tp724
I21247
s(g4
g3
g4
tp725
I63209
ssS'\xe6\xb1\x9f\xe6\xb3\xbd\xe6\xb0\x91'
p726
(dp727
(g3
g4
g3
tp728
I209249
s(g4
g4
g3
tp729
I7680
s(g3
g3
g4
tp730
I1794223
s(g3
g4
g4
tp731
I8553
s(g4
g3
g3
tp732
I80234
sg10
(g726
g11
g12
tp733
s(g4
g4
g4
tp734
I239
s(g4
g3
g4
tp735
I6019
ssS'\xe6\x9c\xba\xe6\x9e\x84'
p736
(dp737
(g3
g4
g3
tp738
I216304
s(g4
g4
g3
tp739
I50621
s(g3
g3
g4
tp740
I1794217
s(g3
g4
g4
tp741
I8553
s(g4
g3
g3
tp742
I3272656
sg10
(g736
g11
g12
tp743
s(g4
g4
g4
tp744
I22883
s(g4
g3
g4
tp745
I118334
ssS'\xe5\x9b\xbd\xe6\x9c\x89\xe7\xbb\x8f\xe6\xb5\x8e'
p746
(dp747
(g3
g4
g3
tp748
I209248
s(g4
g4
g3
tp749
I2950
s(g3
g3
g4
tp750
I1794217
s(g3
g4
g4
tp751
I8553
s(g4
g3
g3
tp752
I313161
sg10
(g746
g11
g12
tp753
s(g4
g4
g4
tp754
I1589
s(g4
g3
g4
tp755
I1958
ssS'\xe5\xb0\x8f\xe5\xba\xb7\xe7\xa4\xbe\xe4\xbc\x9a'
p756
(dp757
(g3
g4
g3
tp758
I216304
s(g4
g4
g3
tp759
I20605
s(g3
g3
g4
tp760
I1794217
s(g3
g4
g4
tp761
I8553
s(g4
g3
g3
tp762
I69542
sg10
(g756
g11
g12
tp763
s(g4
g4
g4
tp764
I9680
s(g4
g3
g4
tp765
I23361
ssS'\xe6\x88\x91\xe5\x9b\xbd'
p766
(dp767
(g3
g4
g3
tp768
I216304
s(g4
g4
g3
tp769
I72043
s(g3
g3
g4
tp770
I1794217
s(g3
g4
g4
tp771
I8553
s(g4
g3
g3
tp772
I2941234
sg10
(g766
g11
g12
tp773
s(g4
g4
g4
tp774
I13761
s(g4
g3
g4
tp775
I848555
ssS'\xe7\xa4\xbe\xe4\xbc\x9a'
p776
(dp777
(g3
g4
g3
tp778
I209248
s(g4
g4
g3
tp779
I45699
s(g3
g3
g4
tp780
I1794217
s(g3
g4
g4
tp781
I8553
s(g4
g3
g3
tp782
I5847333
sg10
(g776
g11
g12
tp783
s(g4
g4
g4
tp784
I17523
s(g4
g3
g4
tp785
I121516
ssS'\xe5\x90\x84\xe6\x97\x8f\xe4\xba\xba\xe6\xb0\x91'
p786
(dp787
(g3
g4
g3
tp788
I216304
s(g4
g4
g3
tp789
I21052
s(g3
g3
g4
tp790
I1794217
s(g3
g4
g4
tp791
I8553
s(g4
g3
g3
tp792
I22901
sg10
(g786
g11
g12
tp793
s(g4
g4
g4
tp794
I7785
s(g4
g3
g4
tp795
I36880
ssS'\xe7\xa4\xbe\xe4\xbc\x9a\xe4\xb8\xbb\xe4\xb9\x89'
p796
(dp797
(g3
g4
g3
tp798
I216304
s(g4
g4
g3
tp799
I11553
s(g3
g3
g4
tp800
I1794217
s(g3
g4
g4
tp801
I8553
s(g4
g3
g3
tp802
I298665
sg10
(g796
g11
g12
tp803
s(g4
g4
g4
tp804
I7919
s(g4
g3
g4
tp805
I22289
ssS'\xe9\x87\x8d\xe7\x82\xb9'
p806
(dp807
(g3
g4
g3
tp808
I209249
s(g4
g4
g3
tp809
I26009
s(g3
g3
g4
tp810
I1794223
s(g3
g4
g4
tp811
I8553
s(g4
g3
g3
tp812
I3137336
sg10
(g806
g11
g12
tp813
s(g4
g4
g4
tp814
I22437
s(g4
g3
g4
tp815
I61310
ssS'\xe7\xbb\x8f\xe6\xb5\x8e'
p816
(dp817
(g3
g4
g3
tp818
I209249
s(g4
g4
g3
tp819
I27236
s(g3
g3
g4
tp820
I1794223
s(g3
g4
g4
tp821
I8553
s(g4
g3
g3
tp822
I19549055
sg10
(g816
g11
g12
tp823
s(g4
g4
g4
tp824
I25599
s(g4
g3
g4
tp825
I111895
ssS'\xe5\x9f\xba\xe6\x9c\xac'
p826
(dp827
(g3
g4
g3
tp828
I216304
s(g4
g4
g3
tp829
I26997
s(g3
g3
g4
tp830
I1794217
s(g3
g4
g4
tp831
I8553
s(g4
g3
g3
tp832
I10019824
sg10
(g826
g11
g12
tp833
s(g4
g4
g4
tp834
I24087
s(g4
g3
g4
tp835
I388659
ssS'\xe9\x9d\x9e\xe5\x85\xac\xe6\x9c\x89\xe5\x88\xb6'
p836
(dp837
(g3
g4
g3
tp838
I209248
s(g4
g4
g3
tp839
I8590
s(g3
g3
g4
tp840
I1794217
s(g3
g4
g4
tp841
I8553
s(g4
g3
g3
tp842
I27061
sg10
(g836
g11
g12
tp843
s(g4
g4
g4
tp844
I1861
s(g4
g3
g4
tp845
I16841
ssS'\xe7\xae\xa1\xe7\x90\x86\xe4\xbd\x93\xe5\x88\xb6'
p846
(dp847
(g3
g4
g3
tp848
I216304
s(g4
g4
g3
tp849
I10272
s(g3
g3
g4
tp850
I1794217
s(g3
g4
g4
tp851
I8553
s(g4
g3
g3
tp852
I905494
sg10
(g846
g11
g12
tp853
s(g4
g4
g4
tp854
I4729
s(g4
g3
g4
tp855
I14813
ssS'\xe4\xbe\x9d\xe6\xb3\x95\xe6\xb2\xbb\xe5\x9b\xbd'
p856
(dp857
(g3
g4
g3
tp858
I209248
s(g4
g4
g3
tp859
I21684
s(g3
g3
g4
tp860
I1794217
s(g3
g4
g4
tp861
I8553
s(g4
g3
g3
tp862
I191065
sg10
(g856
g11
g12
tp863
s(g4
g4
g4
tp864
I6799
s(g4
g3
g4
tp865
I39866
ssS'\xe7\xac\xac\xe5\x8d\x81\xe4\xba\x94\xe5\xb1\x8a'
p866
(dp867
(g3
g4
g3
tp868
I209248
s(g4
g4
g3
tp869
I3769
s(g3
g3
g4
tp870
I1794217
s(g3
g4
g4
tp871
I8553
s(g4
g3
g3
tp872
I233102
sg10
(g866
g11
g12
tp873
s(g4
g4
g4
tp874
I960
s(g4
g3
g4
tp875
I8975
ssS'\xe8\x83\xbd\xe5\x8a\x9b'
p876
(dp877
(g3
g4
g3
tp878
I209248
s(g4
g4
g3
tp879
I11281
s(g3
g3
g4
tp880
I1794217
s(g3
g4
g4
tp881
I8553
s(g4
g3
g3
tp882
I9182475
sg10
(g876
g11
g12
tp883
s(g4
g4
g4
tp884
I24375
s(g4
g3
g4
tp885
I68480
ssS'\xe5\xb7\xa5\xe4\xbd\x9c'
p886
(dp887
(g3
g4
g3
tp888
I209248
s(g4
g4
g3
tp889
I13338
s(g3
g3
g4
tp890
I1794217
s(g3
g4
g4
tp891
I8553
s(g4
g3
g3
tp892
I27861304
sg10
(g886
g11
g12
tp893
s(g4
g4
g4
tp894
I20042
s(g4
g3
g4
tp895
I96389
ssS'\xe4\xb9\xa0\xe8\xbf\x91\xe5\xb9\xb3'
p896
(dp897
(g3
g4
g3
tp898
I209248
s(g4
g4
g3
tp899
I9136
s(g3
g3
g4
tp900
I1794217
s(g3
g4
g4
tp901
I8553
s(g4
g3
g3
tp902
I565024
sg10
(g896
g11
g12
tp903
s(g4
g4
g4
tp904
I474
s(g4
g3
g4
tp905
I11138
ssS'\xe6\xb3\x95\xe5\xbe\x8b'
p906
(dp907
(g3
g4
g3
tp908
I216304
s(g4
g4
g3
tp909
I26513
s(g3
g3
g4
tp910
I1794217
s(g3
g4
g4
tp911
I8553
s(g4
g3
g3
tp912
I11749150
sg10
(g906
g11
g12
tp913
s(g4
g4
g4
tp914
I19606
s(g4
g3
g4
tp915
I108193
ssS'\xe5\x85\x9a\xe7\x9a\x84\xe9\xa2\x86\xe5\xaf\xbc'
p916
(dp917
(g3
g4
g3
tp918
I216304
s(g4
g4
g3
tp919
I19073
s(g3
g3
g4
tp920
I1794217
s(g3
g4
g4
tp921
I8553
s(g4
g3
g3
tp922
I158374
sg10
(g916
g11
g12
tp923
s(g4
g4
g4
tp924
I12762
s(g4
g3
g4
tp925
I60265
ssS'\xe6\x96\x87\xe5\x8c\x96\xe4\xba\xa7\xe4\xb8\x9a'
p926
(dp927
(g3
g4
g3
tp928
I209248
s(g4
g4
g3
tp929
I5856
s(g3
g3
g4
tp930
I1794217
s(g3
g4
g4
tp931
I8553
s(g4
g3
g3
tp932
I262719
sg10
(g926
g11
g12
tp933
s(g4
g4
g4
tp934
I3317
s(g4
g3
g4
tp935
I6242
ssS'\xe4\xb8\x8d\xe6\x96\xad'
p936
(dp937
(g3
g4
g3
tp938
I216304
s(g4
g4
g3
tp939
I27266
s(g3
g3
g4
tp940
I1794217
s(g3
g4
g4
tp941
I8553
s(g4
g3
g3
tp942
I646213
sg10
(g936
g11
g12
tp943
s(g4
g4
g4
tp944
I27206
s(g4
g3
g4
tp945
I67916
ssS'\xe5\x8d\x81\xe5\x85\xab'
p946
(dp947
(g3
g4
g3
tp948
I209249
s(g4
g4
g3
tp949
I16806
s(g3
g3
g4
tp950
I1794223
s(g3
g4
g4
tp951
I8553
s(g4
g3
g3
tp952
I865033
sg10
(g946
g11
g12
tp953
s(g4
g4
g4
tp954
I16909
s(g4
g3
g4
tp955
I86886
ssS'\xe7\xa7\x91\xe5\xad\xa6'
p956
(dp957
(g3
g4
g3
tp958
I216304
s(g4
g4
g3
tp959
I13468
s(g3
g3
g4
tp960
I1794217
s(g3
g4
g4
tp961
I8553
s(g4
g3
g3
tp962
I26304042
sg10
(g956
g11
g12
tp963
s(g4
g4
g4
tp964
I19228
s(g4
g3
g4
tp965
I203520
ssS'\xe5\xbb\xba\xe8\xae\xbe'
p966
(dp967
(g3
g4
g3
tp968
I209249
s(g4
g4
g3
tp969
I21693
s(g3
g3
g4
tp970
I1794223
s(g3
g4
g4
tp971
I8553
s(g4
g3
g3
tp972
I17181236
sg10
(g966
g11
g12
tp973
s(g4
g4
g4
tp974
I20962
s(g4
g3
g4
tp975
I108696
ssS'\xe7\xbb\x8f\xe6\xb5\x8e\xe7\xa4\xbe\xe4\xbc\x9a'
p976
(dp977
(g3
g4
g3
tp978
I209248
s(g4
g4
g3
tp979
I3860
s(g3
g3
g4
tp980
I1794217
s(g3
g4
g4
tp981
I8553
s(g4
g3
g3
tp982
I91506
sg10
(g976
g11
g12
tp983
s(g4
g4
g4
tp984
I3111
s(g4
g3
g4
tp985
I4268
ssS'\xe7\xac\xac\xe5\x8d\x81\xe5\x85\xab\xe5\xb1\x8a'
p986
(dp987
(g3
g4
g3
tp988
I209248
s(g4
g4
g3
tp989
I4663
s(g3
g3
g4
tp990
I1794217
s(g3
g4
g4
tp991
I8553
s(g4
g3
g3
tp992
I46387
sg10
(g986
g11
g12
tp993
s(g4
g4
g4
tp994
I1244
s(g4
g3
g4
tp995
I7411
ssS'\xe6\xb7\xb1\xe5\x8c\x96\xe6\x94\xb9\xe9\x9d\xa9'
p996
(dp997
(g3
g4
g3
tp998
I216304
s(g4
g4
g3
tp999
I13001
s(g3
g3
g4
tp1000
I1794217
s(g3
g4
g4
tp1001
I8553
s(g4
g3
g3
tp1002
I200537
sg10
(g996
g11
g12
tp1003
s(g4
g4
g4
tp1004
I5114
s(g4
g3
g4
tp1005
I11361
ssS'\xe5\x9b\xbd\xe6\x9c\x89\xe4\xbc\x81\xe4\xb8\x9a'
p1006
(dp1007
(g3
g4
g3
tp1008
I209248
s(g4
g4
g3
tp1009
I17070
s(g3
g3
g4
tp1010
I1794217
s(g3
g4
g4
tp1011
I8553
s(g4
g3
g3
tp1012
I346398
sg10
(g1006
g11
g12
tp1013
s(g4
g4
g4
tp1014
I6990
s(g4
g3
g4
tp1015
I20669
ssS'\xe5\x85\x9a\xe5\x86\x85'
p1016
(dp1017
(g3
g4
g3
tp1018
I216304
s(g4
g4
g3
tp1019
I4826
s(g3
g3
g4
tp1020
I1794217
s(g3
g4
g4
tp1021
I8553
s(g4
g3
g3
tp1022
I61216
sg10
(g1016
g11
g12
tp1023
s(g4
g4
g4
tp1024
I2902
s(g4
g3
g4
tp1025
I4770
ssS'\xe5\xb9\xb2\xe9\x83\xa8'
p1026
(dp1027
(g3
g4
g3
tp1028
I216304
s(g4
g4
g3
tp1029
I15501
s(g3
g3
g4
tp1030
I1794217
s(g3
g4
g4
tp1031
I8553
s(g4
g3
g3
tp1032
I3225453
sg10
(g1026
g11
g12
tp1033
s(g4
g4
g4
tp1034
I17375
s(g4
g3
g4
tp1035
I45936
ssS'\xe7\x9d\x80\xe5\x8a\x9b'
p1036
(dp1037
(g3
g4
g3
tp1038
I209248
s(g4
g4
g3
tp1039
I12977
s(g3
g3
g4
tp1040
I1794217
s(g3
g4
g4
tp1041
I8553
s(g4
g3
g3
tp1042
I283283
sg10
(g1036
g11
g12
tp1043
s(g4
g4
g4
tp1044
I11522
s(g4
g3
g4
tp1045
I44142
ssS'\xe4\xbd\x93\xe5\x88\xb6\xe6\x94\xb9\xe9\x9d\xa9'
p1046
(dp1047
(g3
g4
g3
tp1048
I216304
s(g4
g4
g3
tp1049
I11102
s(g3
g3
g4
tp1050
I1794217
s(g3
g4
g4
tp1051
I8553
s(g4
g3
g3
tp1052
I27965
sg10
(g1046
g11
g12
tp1053
s(g4
g4
g4
tp1054
I7389
s(g4
g3
g4
tp1055
I16544
ssS'\xe7\xbb\x93\xe5\x90\x88'
p1056
(dp1057
(g3
g4
g3
tp1058
I209249
s(g4
g4
g3
tp1059
I16224
s(g3
g3
g4
tp1060
I1794223
s(g3
g4
g4
tp1061
I8553
s(g4
g3
g3
tp1062
I4125656
sg10
(g1056
g11
g12
tp1063
s(g4
g4
g4
tp1064
I21590
s(g4
g3
g4
tp1065
I88494
ssS'\xe5\x8d\x81\xe4\xb8\x80\xe4\xba\x94'
p1066
(dp1067
(g3
g4
g3
tp1068
I209248
s(g4
g4
g3
tp1069
I3716
s(g3
g3
g4
tp1070
I1794217
s(g3
g4
g4
tp1071
I8553
s(g4
g3
g3
tp1072
I166482
sg10
(g1066
g11
g12
tp1073
s(g4
g4
g4
tp1074
I2029
s(g4
g3
g4
tp1075
I4619
ssS'\xe5\x9b\xbd\xe5\x8a\xa1\xe9\x99\xa2'
p1076
(dp1077
(g3
g4
g3
tp1078
I216304
s(g4
g4
g3
tp1079
I19530
s(g3
g3
g4
tp1080
I1794217
s(g3
g4
g4
tp1081
I8553
s(g4
g3
g3
tp1082
I259085
sg10
(g1076
g11
g12
tp1083
s(g4
g4
g4
tp1084
I24145
s(g4
g3
g4
tp1085
I48955
ssS'\xe4\xbc\x9a\xe8\xae\xae'
p1086
(dp1087
(g3
g4
g3
tp1088
I216304
s(g4
g4
g3
tp1089
I23797
s(g3
g3
g4
tp1090
I1794217
s(g3
g4
g4
tp1091
I8553
s(g4
g3
g3
tp1092
I3233243
sg10
(g1086
g11
g12
tp1093
s(g4
g4
g4
tp1094
I19486
s(g4
g3
g4
tp1095
I103574
ssS'\xe8\xb4\xaf\xe5\xbd\xbb'
p1096
(dp1097
(g3
g4
g3
tp1098
I209249
s(g4
g4
g3
tp1099
I13057
s(g3
g3
g4
tp1100
I1794223
s(g3
g4
g4
tp1101
I8553
s(g4
g3
g3
tp1102
I194866
sg10
(g1096
g11
g12
tp1103
s(g4
g4
g4
tp1104
I15399
s(g4
g3
g4
tp1105
I49742
ssS'\xe5\x85\xa8\xe4\xbc\x9a'
p1106
(dp1107
(g3
g4
g3
tp1108
I216304
s(g4
g4
g3
tp1109
I11835
s(g3
g3
g4
tp1110
I1794217
s(g3
g4
g4
tp1111
I8553
s(g4
g3
g3
tp1112
I527729
sg10
(g1106
g11
g12
tp1113
s(g4
g4
g4
tp1114
I14848
s(g4
g3
g4
tp1115
I28753
ssS'\xe7\xab\x8b\xe6\xb3\x95'
p1116
(dp1117
(g3
g4
g3
tp1118
I209248
s(g4
g4
g3
tp1119
I20999
s(g3
g3
g4
tp1120
I1794217
s(g3
g4
g4
tp1121
I8553
s(g4
g3
g3
tp1122
I463508
sg10
(g1116
g11
g12
tp1123
s(g4
g4
g4
tp1124
I19928
s(g4
g3
g4
tp1125
I48974
ssS'\xe6\x8e\xa8\xe8\xbf\x9b'
p1126
(dp1127
(g3
g4
g3
tp1128
I209248
s(g4
g4
g3
tp1129
I26469
s(g3
g3
g4
tp1130
I1794217
s(g3
g4
g4
tp1131
I8553
s(g4
g3
g3
tp1132
I804619
sg10
(g1126
g11
g12
tp1133
s(g4
g4
g4
tp1134
I26193
s(g4
g3
g4
tp1135
I47939
ssS'\xe9\xa2\x86\xe5\xaf\xbc\xe4\xba\xba\xe5\x91\x98'
p1136
(dp1137
(g3
g4
g3
tp1138
I209248
s(g4
g4
g3
tp1139
I3748
s(g3
g3
g4
tp1140
I1794217
s(g3
g4
g4
tp1141
I8553
s(g4
g3
g3
tp1142
I5773
sg10
(g1136
g11
g12
tp1143
s(g4
g4
g4
tp1144
I364
s(g4
g3
g4
tp1145
I1482
ssS'\xe5\x9b\xbd\xe5\xae\xb6'
p1146
(dp1147
(g3
g4
g3
tp1148
I216304
s(g4
g4
g3
tp1149
I55341
s(g3
g3
g4
tp1150
I1794217
s(g3
g4
g4
tp1151
I8553
s(g4
g3
g3
tp1152
I41579392
sg10
(g1146
g11
g12
tp1153
s(g4
g4
g4
tp1154
I12434
s(g4
g3
g4
tp1155
I260768
ssS'\xe4\xb8\xad\xe5\x9b\xbd\xe5\x85\xb1\xe4\xba\xa7\xe5\x85\x9a'
p1156
(dp1157
(g3
g4
g3
tp1158
I209248
s(g4
g4
g3
tp1159
I7639
s(g3
g3
g4
tp1160
I1794217
s(g3
g4
g4
tp1161
I8553
s(g4
g3
g3
tp1162
I304713
sg10
(g1156
g11
g12
tp1163
s(g4
g4
g4
tp1164
I4595
s(g4
g3
g4
tp1165
I51755
ssS'\xe6\x89\xa7\xe6\x94\xbf'
p1166
(dp1167
(g3
g4
g3
tp1168
I209248
s(g4
g4
g3
tp1169
I17595
s(g3
g3
g4
tp1170
I1794217
s(g3
g4
g4
tp1171
I8553
s(g4
g3
g3
tp1172
I1083942
sg10
(g1166
g11
g12
tp1173
s(g4
g4
g4
tp1174
I20201
s(g4
g3
g4
tp1175
I51334
ssS'\xe5\x9d\x9a\xe6\x8c\x81'
p1176
(dp1177
(g3
g4
g3
tp1178
I216304
s(g4
g4
g3
tp1179
I10359
s(g3
g3
g4
tp1180
I1794217
s(g3
g4
g4
tp1181
I8553
s(g4
g3
g3
tp1182
I2750216
sg10
(g1176
g11
g12
tp1183
s(g4
g4
g4
tp1184
I22228
s(g4
g3
g4
tp1185
I62702
ssS'\xe5\x85\xa8\xe5\x85\x9a\xe5\x85\xa8\xe5\x9b\xbd'
p1186
(dp1187
(g3
g4
g3
tp1188
I216304
s(g4
g4
g3
tp1189
I8578
s(g3
g3
g4
tp1190
I1794217
s(g3
g4
g4
tp1191
I8553
s(g4
g3
g3
tp1192
I8506
sg10
(g1186
g11
g12
tp1193
s(g4
g4
g4
tp1194
I2392
s(g4
g3
g4
tp1195
I10433
ssS'\xe6\x8f\x90\xe9\xab\x98'
p1196
(dp1197
(g3
g4
g3
tp1198
I209249
s(g4
g4
g3
tp1199
I28905
s(g3
g3
g4
tp1200
I1794223
s(g3
g4
g4
tp1201
I8553
s(g4
g3
g3
tp1202
I2310980
sg10
(g1196
g11
g12
tp1203
s(g4
g4
g4
tp1204
I19385
s(g4
g3
g4
tp1205
I68996
ssS'\xe5\xae\xa1\xe8\xae\xae'
p1206
(dp1207
(g3
g4
g3
tp1208
I209249
s(g4
g4
g3
tp1209
I24044
s(g3
g3
g4
tp1210
I1794217
s(g3
g4
g4
tp1211
I8553
s(g4
g3
g3
tp1212
I951773
sg10
(g1206
g11
g12
tp1213
s(g4
g4
g4
tp1214
I8442
s(g4
g3
g4
tp1215
I26326
ssS'\xe6\x94\xb9\xe8\xbf\x9b'
p1216
(dp1217
(g3
g4
g3
tp1218
I209249
s(g4
g4
g3
tp1219
I15352
s(g3
g3
g4
tp1220
I1794223
s(g3
g4
g4
tp1221
I8553
s(g4
g3
g3
tp1222
I651038
sg10
(g1216
g11
g12
tp1223
s(g4
g4
g4
tp1224
I14724
s(g4
g3
g4
tp1225
I56709
ssS'\xe5\xae\x8c\xe5\x96\x84'
p1226
(dp1227
(g3
g4
g3
tp1228
I216304
s(g4
g4
g3
tp1229
I23451
s(g3
g3
g4
tp1230
I1794217
s(g3
g4
g4
tp1231
I8553
s(g4
g3
g3
tp1232
I1179960
sg10
(g1226
g11
g12
tp1233
s(g4
g4
g4
tp1234
I23476
s(g4
g3
g4
tp1235
I59733
ssS'\xe5\x8f\x8d\xe5\xaf\xb9'
p1236
(dp1237
(g3
g4
g3
tp1238
I209249
s(g4
g4
g3
tp1239
I32926
s(g3
g3
g4
tp1240
I1794223
s(g3
g4
g4
tp1241
I8553
s(g4
g3
g3
tp1242
I1818923
sg10
(g1236
g11
g12
tp1243
s(g4
g4
g4
tp1244
I24966
s(g4
g3
g4
tp1245
I66168
ssS'\xe5\xae\x9e\xe7\x8e\xb0'
p1246
(dp1247
(g3
g4
g3
tp1248
I209248
s(g4
g4
g3
tp1249
I31330
s(g3
g3
g4
tp1250
I1794217
s(g3
g4
g4
tp1251
I8553
s(g4
g3
g3
tp1252
I4341241
sg10
(g1246
g11
g12
tp1253
s(g4
g4
g4
tp1254
I28410
s(g4
g3
g4
tp1255
I62287
ssS'\xe5\x85\xa8\xe9\x9d\xa2'
p1256
(dp1257
(g3
g4
g3
tp1258
I209249
s(g4
g4
g3
tp1259
I31076
s(g3
g3
g4
tp1260
I1794217
s(g3
g4
g4
tp1261
I8553
s(g4
g3
g3
tp1262
I3318468
sg10
(g1256
g11
g12
tp1263
s(g4
g4
g4
tp1264
I21776
s(g4
g3
g4
tp1265
I57818
ssS'\xe5\x9b\xbd\xe6\xb0\x91\xe7\xbb\x8f\xe6\xb5\x8e'
p1266
(dp1267
(g3
g4
g3
tp1268
I216304
s(g4
g4
g3
tp1269
I10050
s(g3
g3
g4
tp1270
I1794217
s(g3
g4
g4
tp1271
I8553
s(g4
g3
g3
tp1272
I75170
sg10
(g1266
g11
g12
tp1273
s(g4
g4
g4
tp1274
I5956
s(g4
g3
g4
tp1275
I13760
ssS'\xe5\x86\x9c\xe6\x9d\x91'
p1276
(dp1277
(g3
g4
g3
tp1278
I216304
s(g4
g4
g3
tp1279
I11300
s(g3
g3
g4
tp1280
I1794217
s(g3
g4
g4
tp1281
I8553
s(g4
g3
g3
tp1282
I7220283
sg10
(g1276
g11
g12
tp1283
s(g4
g4
g4
tp1284
I19951
s(g4
g3
g4
tp1285
I77027
ssS'\xe9\xa2\x86\xe5\xaf\xbc'
p1286
(dp1287
(g3
g4
g3
tp1288
I209249
s(g4
g4
g3
tp1289
I16959
s(g3
g3
g4
tp1290
I1794223
s(g3
g4
g4
tp1291
I8553
s(g4
g3
g3
tp1292
I2876759
sg10
(g1286
g11
g12
tp1293
s(g4
g4
g4
tp1294
I22823
s(g4
g3
g4
tp1295
I72946
ssS'\xe4\xbb\xb7\xe5\x80\xbc\xe4\xbd\x93\xe7\xb3\xbb'
p1296
(dp1297
(g3
g4
g3
tp1298
I216304
s(g4
g4
g3
tp1299
I1945
s(g3
g3
g4
tp1300
I1794217
s(g3
g4
g4
tp1301
I8553
s(g4
g3
g3
tp1302
I44740
sg10
(g1296
g11
g12
tp1303
s(g4
g4
g4
tp1304
I2697
s(g4
g3
g4
tp1305
I5214
ssS'\xe9\x87\x8d\xe8\xa6\x81'
p1306
(dp1307
(g3
g4
g3
tp1308
I209248
s(g4
g4
g3
tp1309
I45353
s(g3
g3
g4
tp1310
I1794217
s(g3
g4
g4
tp1311
I8553
s(g4
g3
g3
tp1312
I5988770
sg10
(g1306
g11
g12
tp1313
s(g4
g4
g4
tp1314
I23721
s(g4
g3
g4
tp1315
I76512
ssS'\xe9\xa9\xac\xe5\x85\x8b\xe6\x80\x9d\xe4\xb8\xbb\xe4\xb9\x89'
p1316
(dp1317
(g3
g4
g3
tp1318
I209249
s(g4
g4
g3
tp1319
I17410
s(g3
g3
g4
tp1320
I1794217
s(g3
g4
g4
tp1321
I8553
s(g4
g3
g3
tp1322
I259420
sg10
(g1316
g11
g12
tp1323
s(g4
g4
g4
tp1324
I10047
s(g4
g3
g4
tp1325
I37336
ssS'\xe5\x85\xac\xe5\xb9\xb3\xe6\xad\xa3\xe4\xb9\x89'
p1326
(dp1327
(g3
g4
g3
tp1328
I209249
s(g4
g4
g3
tp1329
I18873
s(g3
g3
g4
tp1330
I1794223
s(g3
g4
g4
tp1331
I8553
s(g4
g3
g3
tp1332
I259037
sg10
(g1326
g11
g12
tp1333
s(g4
g4
g4
tp1334
I7905
s(g4
g3
g4
tp1335
I34554
ssS'\xe4\xb8\xad\xe5\xa4\xae\xe6\x94\xbf\xe6\xb2\xbb\xe5\xb1\x80'
p1336
(dp1337
(g3
g4
g3
tp1338
I216304
s(g4
g4
g3
tp1339
I12503
s(g3
g3
g4
tp1340
I1794217
s(g3
g4
g4
tp1341
I8553
s(g4
g3
g3
tp1342
I34775
sg10
(g1336
g11
g12
tp1343
s(g4
g4
g4
tp1344
I4664
s(g4
g3
g4
tp1345
I25592
ssS'\xe5\x85\xac\xe6\x9c\x89\xe5\x88\xb6'
p1346
(dp1347
(g3
g4
g3
tp1348
I216304
s(g4
g4
g3
tp1349
I12175
s(g3
g3
g4
tp1350
I1794217
s(g3
g4
g4
tp1351
I8553
s(g4
g3
g3
tp1352
I393884
sg10
(g1346
g11
g12
tp1353
s(g4
g4
g4
tp1354
I6053
s(g4
g3
g4
tp1355
I48745
ssS'\xe5\x81\xa5\xe5\x85\xa8'
p1356
(dp1357
(g3
g4
g3
tp1358
I209248
s(g4
g4
g3
tp1359
I15769
s(g3
g3
g4
tp1360
I1794217
s(g3
g4
g4
tp1361
I8553
s(g4
g3
g3
tp1362
I58962
sg10
(g1356
g11
g12
tp1363
s(g4
g4
g4
tp1364
I18863
s(g4
g3
g4
tp1365
I55067
ssS'\xe5\x8d\x81\xe4\xba\x94\xe5\xa4\xa7'
p1366
(dp1367
(g3
g4
g3
tp1368
I216304
s(g4
g4
g3
tp1369
I1164
s(g3
g3
g4
tp1370
I1794217
s(g3
g4
g4
tp1371
I8553
s(g4
g3
g3
tp1372
I41741
sg10
(g1366
g11
g12
tp1373
s(g4
g4
g4
tp1374
I1012
s(g4
g3
g4
tp1375
I782
ssS'\xe4\xb9\x9d\xe5\xb1\x8a\xe5\x85\xa8\xe5\x9b\xbd\xe4\xba\xba\xe5\xa4\xa7'
p1376
(dp1377
(g3
g4
g3
tp1378
I209248
s(g4
g4
g3
tp1379
I4202
s(g3
g3
g4
tp1380
I1794217
s(g3
g4
g4
tp1381
I8553
s(g4
g3
g3
tp1382
I23604
sg10
(g1376
g11
g12
tp1383
s(g4
g4
g4
tp1384
I1171
s(g4
g3
g4
tp1385
I5908
ssS'\xe8\xbd\xac\xe5\x8f\x98'
p1386
(dp1387
(g3
g4
g3
tp1388
I216304
s(g4
g4
g3
tp1389
I17183
s(g3
g3
g4
tp1390
I1794217
s(g3
g4
g4
tp1391
I8553
s(g4
g3
g3
tp1392
I474681
sg10
(g1386
g11
g12
tp1393
s(g4
g4
g4
tp1394
I20349
s(g4
g3
g4
tp1395
I72270
ssS'\xe6\x8e\xa8\xe5\x8a\xa8'
p1396
(dp1397
(g3
g4
g3
tp1398
I216304
s(g4
g4
g3
tp1399
I38714
s(g3
g3
g4
tp1400
I1794217
s(g3
g4
g4
tp1401
I8553
s(g4
g3
g3
tp1402
I1814883
sg10
(g1396
g11
g12
tp1403
s(g4
g4
g4
tp1404
I30261
s(g4
g3
g4
tp1405
I69491
ssS'\xe6\xb3\x95\xe6\xb2\xbb'
p1406
(dp1407
(g3
g4
g3
tp1408
I209248
s(g4
g4
g3
tp1409
I17165
s(g3
g3
g4
tp1410
I1794217
s(g3
g4
g4
tp1411
I8553
s(g4
g3
g3
tp1412
I1553892
sg10
(g1406
g11
g12
tp1413
s(g4
g4
g4
tp1414
I10850
s(g4
g3
g4
tp1415
I61009
ssS'\xe5\x8f\x91\xe5\xb1\x95'
p1416
(dp1417
(g3
g4
g3
tp1418
I209248
s(g4
g4
g3
tp1419
I44776
s(g3
g3
g4
tp1420
I1794223
s(g3
g4
g4
tp1421
I8553
s(g4
g3
g3
tp1422
I10452885
sg10
(g1416
g11
g12
tp1423
s(g4
g4
g4
tp1424
I23327
s(g4
g3
g4
tp1425
I84003
ssS'\xe6\x8a\x97\xe7\x81\xbe\xe6\x95\x91\xe7\x81\xbe'
p1426
(dp1427
(g3
g4
g3
tp1428
I216304
s(g4
g4
g3
tp1429
I3727
s(g3
g3
g4
tp1430
I1794217
s(g3
g4
g4
tp1431
I8553
s(g4
g3
g3
tp1432
I113950
sg10
(g1426
g11
g12
tp1433
s(g4
g4
g4
tp1434
I799
s(g4
g3
g4
tp1435
I24282
ss.