(dp0
S'\xe5\x88\x9b\xe6\x96\xb0'
p1
(dp2
(S'?'
p3
S'+'
p4
g3
tp5
I1946179
s(g4
g4
g3
tp6
I88047
s(g3
g3
g4
tp7
I514290
s(g3
g4
g4
tp8
I16120
s(g4
g3
g3
tp9
I2964643
sS'words'
p10
(g1
S'\xe6\xb0\x91\xe7\x94\x9f'
p11
S'\xe6\x81\x90\xe6\x80\x96\xe4\xb8\xbb\xe4\xb9\x89'
p12
tp13
s(g4
g4
g4
tp14
I30378
s(g4
g3
g4
tp15
I11299
ssS'\xe6\x88\x91\xe5\x9b\xbd'
p16
(dp17
(g3
g4
g3
tp18
I1946179
s(g4
g4
g3
tp19
I463064
s(g3
g3
g4
tp20
I514279
s(g3
g4
g4
tp21
I16120
s(g4
g3
g3
tp22
I2705756
sg10
(g16
g11
g12
tp23
s(g4
g4
g4
tp24
I22286
s(g4
g3
g4
tp25
I74925
ssS'\xe7\xbb\x8f\xe8\x90\xa5\xe7\xae\xa1\xe7\x90\x86\xe8\x80\x85'
p26
(dp27
(g3
g4
g3
tp28
I1946179
s(g4
g4
g3
tp29
I7931
s(g3
g3
g4
tp30
I514279
s(g3
g4
g4
tp31
I16120
s(g4
g3
g3
tp32
I89746
sg10
(g26
g11
g12
tp33
s(g4
g4
g4
tp34
I396
s(g4
g3
g4
tp35
I2207
ssS'\xe5\x9b\xbd\xe5\xae\xb6'
p36
(dp37
(g3
g4
g3
tp38
I1946179
s(g4
g4
g3
tp39
I308840
s(g3
g3
g4
tp40
I514279
s(g3
g4
g4
tp41
I16120
s(g4
g3
g3
tp42
I39940197
sg10
(g36
g11
g12
tp43
s(g4
g4
g4
tp44
I23592
s(g4
g3
g4
tp45
I64370
ssS'\xe5\x90\x84\xe6\x97\x8f\xe4\xba\xba\xe6\xb0\x91'
p46
(dp47
(g3
g4
g3
tp48
I1946179
s(g4
g4
g3
tp49
I44612
s(g3
g3
g4
tp50
I514279
s(g3
g4
g4
tp51
I16120
s(g4
g3
g3
tp52
I64500
sg10
(g46
g11
g12
tp53
s(g4
g4
g4
tp54
I10118
s(g4
g3
g4
tp55
I19854
ssS'\xe6\xb0\x91\xe4\xb8\xbb'
p56
(dp57
(g3
g4
g3
tp58
I1946179
s(g4
g4
g3
tp59
I79865
s(g3
g3
g4
tp60
I514279
s(g3
g4
g4
tp61
I16120
s(g4
g3
g3
tp62
I795181
sg10
(g56
g11
g12
tp63
s(g4
g4
g4
tp64
I21278
s(g4
g3
g4
tp65
I14065
ssS'\xe7\xa4\xbe\xe4\xbc\x9a\xe4\xb8\xbb\xe4\xb9\x89'
p66
(dp67
(g3
g4
g3
tp68
I1946179
s(g4
g4
g3
tp69
I40806
s(g3
g3
g4
tp70
I514279
s(g3
g4
g4
tp71
I16120
s(g4
g3
g3
tp72
I334184
sg10
(g66
g11
g12
tp73
s(g4
g4
g4
tp74
I11229
s(g4
g3
g4
tp75
I11160
ssS'\xe8\xbd\xac\xe5\x8f\x98'
p76
(dp77
(g3
g4
g3
tp78
I1946179
s(g4
g4
g3
tp79
I85849
s(g3
g3
g4
tp80
I514279
s(g3
g4
g4
tp81
I16120
s(g4
g3
g3
tp82
I3419969
sg10
(g76
g11
g12
tp83
s(g4
g4
g4
tp84
I25411
s(g4
g3
g4
tp85
I18810
ssS'\xe7\x89\xb9\xe8\x89\xb2'
p86
(dp87
(g3
g4
g3
tp88
I1946179
s(g4
g4
g3
tp89
I71782
s(g3
g3
g4
tp90
I514279
s(g3
g4
g4
tp91
I16120
s(g4
g3
g3
tp92
I7647476
sg10
(g86
g11
g12
tp93
s(g4
g4
g4
tp94
I23285
s(g4
g3
g4
tp95
I14708
ssS'\xe5\x9f\xba\xe6\x9c\xac'
p96
(dp97
(g3
g4
g3
tp98
I1946179
s(g4
g4
g3
tp99
I446430
s(g3
g3
g4
tp100
I514279
s(g3
g4
g4
tp101
I16120
s(g4
g3
g3
tp102
I5566758
sg10
(g96
g11
g12
tp103
s(g4
g4
g4
tp104
I37001
s(g4
g3
g4
tp105
I29504
ssS'\xe9\x82\x93\xe5\xb0\x8f\xe5\xb9\xb3\xe7\x90\x86\xe8\xae\xba'
p106
(dp107
(g3
g4
g3
tp108
I1946179
s(g4
g4
g3
tp109
I35093
s(g3
g3
g4
tp110
I514279
s(g3
g4
g4
tp111
I16120
s(g4
g3
g3
tp112
I349365
sg10
(g106
g11
g12
tp113
s(g4
g4
g4
tp114
I5857
s(g4
g3
g4
tp115
I7442
ssS'\xe5\x9d\x9a\xe6\x8c\x81'
p116
(dp117
(g3
g4
g3
tp118
I1946179
s(g4
g4
g3
tp119
I73881
s(g3
g3
g4
tp120
I514279
s(g3
g4
g4
tp121
I16120
s(g4
g3
g3
tp122
I1970344
sg10
(g116
g11
g12
tp123
s(g4
g4
g4
tp124
I28420
s(g4
g3
g4
tp125
I11291
ssS'\xe7\xae\xa1\xe7\x90\x86\xe4\xbd\x93\xe5\x88\xb6'
p126
(dp127
(g3
g4
g3
tp128
I1946179
s(g4
g4
g3
tp129
I25138
s(g3
g3
g4
tp130
I514279
s(g3
g4
g4
tp131
I16120
s(g4
g3
g3
tp132
I939982
sg10
(g126
g11
g12
tp133
s(g4
g4
g4
tp134
I8290
s(g4
g3
g4
tp135
I11704
ssS'\xe4\xbe\x9d\xe6\xb3\x95\xe6\xb2\xbb\xe5\x9b\xbd'
p136
(dp137
(g3
g4
g3
tp138
I1946179
s(g4
g4
g3
tp139
I47666
s(g3
g3
g4
tp140
I514279
s(g3
g4
g4
tp141
I16120
s(g4
g3
g3
tp142
I247150
sg10
(g136
g11
g12
tp143
s(g4
g4
g4
tp144
I13202
s(g4
g3
g4
tp145
I21459
ssS'\xe5\x85\xa8\xe5\x85\x9a\xe5\x85\xa8\xe5\x9b\xbd'
p146
(dp147
(g3
g4
g3
tp148
I1946179
s(g4
g4
g3
tp149
I20765
s(g3
g3
g4
tp150
I514279
s(g3
g4
g4
tp151
I16120
s(g4
g3
g3
tp152
I23804
sg10
(g146
g11
g12
tp153
s(g4
g4
g4
tp154
I6879
s(g4
g3
g4
tp155
I9276
ssS'\xe5\x8f\x91\xe5\xb1\x95\xe8\xa7\x82'
p156
(dp157
(g3
g4
g3
tp158
I1946179
s(g4
g4
g3
tp159
I67345
s(g3
g3
g4
tp160
I514290
s(g3
g4
g4
tp161
I16120
s(g4
g3
g3
tp162
I448534
sg10
(g156
g11
g12
tp163
s(g4
g4
g4
tp164
I19897
s(g4
g3
g4
tp165
I17019
ssS'\xe4\xb9\x9d\xe5\xb1\x8a'
p166
(dp167
(g3
g4
g3
tp168
I1946179
s(g4
g4
g3
tp169
I8480
s(g3
g3
g4
tp170
I514279
s(g3
g4
g4
tp171
I16120
s(g4
g3
g3
tp172
I291115
sg10
(g166
g11
g12
tp173
s(g4
g4
g4
tp174
I2346
s(g4
g3
g4
tp175
I5854
ssS'\xe5\x90\x8d\xe5\x8d\x95'
p176
(dp177
(g3
g4
g3
tp178
I1946179
s(g4
g4
g3
tp179
I51088
s(g3
g3
g4
tp180
I514279
s(g3
g4
g4
tp181
I16120
s(g4
g3
g3
tp182
I7964664
sg10
(g176
g11
g12
tp183
s(g4
g4
g4
tp184
I12983
s(g4
g3
g4
tp185
I23508
ssS'\xe5\xae\x8c\xe5\x96\x84'
p186
(dp187
(g3
g4
g3
tp188
I1946179
s(g4
g4
g3
tp189
I66152
s(g3
g3
g4
tp190
I514279
s(g3
g4
g4
tp191
I16120
s(g4
g3
g3
tp192
I1262997
sg10
(g186
g11
g12
tp193
s(g4
g4
g4
tp194
I31398
s(g4
g3
g4
tp195
I26361
ssS'\xe5\x8d\x81\xe4\xb8\x80\xe5\xb1\x8a'
p196
(dp197
(g3
g4
g3
tp198
I1946179
s(g4
g4
g3
tp199
I26862
s(g3
g3
g4
tp200
I514279
s(g3
g4
g4
tp201
I16120
s(g4
g3
g3
tp202
I276785
sg10
(g196
g11
g12
tp203
s(g4
g4
g4
tp204
I10117
s(g4
g3
g4
tp205
I17918
ssS'\xe6\x8e\xa8\xe5\x8a\xa8'
p206
(dp207
(g3
g4
g3
tp208
I1946179
s(g4
g4
g3
tp209
I157411
s(g3
g3
g4
tp210
I514279
s(g3
g4
g4
tp211
I16120
s(g4
g3
g3
tp212
I5282030
sg10
(g206
g11
g12
tp213
s(g4
g4
g4
tp214
I24609
s(g4
g3
g4
tp215
I44010
ssS'\xe6\xb3\x95\xe5\xbe\x8b'
p216
(dp217
(g3
g4
g3
tp218
I1946179
s(g4
g4
g3
tp219
I153013
s(g3
g3
g4
tp220
I514290
s(g3
g4
g4
tp221
I16120
s(g4
g3
g3
tp222
I12859291
sg10
(g216
g11
g12
tp223
s(g4
g4
g4
tp224
I20211
s(g4
g3
g4
tp225
I28854
ssS'\xe5\xa7\x8b\xe7\xbb\x88'
p226
(dp227
(g3
g4
g3
tp228
I1946179
s(g4
g4
g3
tp229
I73569
s(g3
g3
g4
tp230
I514279
s(g3
g4
g4
tp231
I16120
s(g4
g3
g3
tp232
I2764996
sg10
(g226
g11
g12
tp233
s(g4
g4
g4
tp234
I23010
s(g4
g3
g4
tp235
I12219
ssS'\xe5\x85\x9a\xe7\x9a\x84\xe9\xa2\x86\xe5\xaf\xbc'
p236
(dp237
(g3
g4
g3
tp238
I1946179
s(g4
g4
g3
tp239
I64578
s(g3
g3
g4
tp240
I514279
s(g3
g4
g4
tp241
I16120
s(g4
g3
g3
tp242
I248671
sg10
(g236
g11
g12
tp243
s(g4
g4
g4
tp244
I14864
s(g4
g3
g4
tp245
I17881
ssS'\xe4\xb8\x8d\xe6\x96\xad'
p246
(dp247
(g3
g4
g3
tp248
I1946179
s(g4
g4
g3
tp249
I76593
s(g3
g3
g4
tp250
I514279
s(g3
g4
g4
tp251
I16120
s(g4
g3
g3
tp252
I1808475
sg10
(g246
g11
g12
tp253
s(g4
g4
g4
tp254
I31106
s(g4
g3
g4
tp255
I32593
ssS'\xe7\xac\xac\xe5\x8d\x81\xe5\x85\xad\xe5\xb1\x8a'
p256
(dp257
(g3
g4
g3
tp258
I1946179
s(g4
g4
g3
tp259
I21384
s(g3
g3
g4
tp260
I514290
s(g3
g4
g4
tp261
I16120
s(g4
g3
g3
tp262
I309742
sg10
(g256
g11
g12
tp263
s(g4
g4
g4
tp264
I4635
s(g4
g3
g4
tp265
I8172
ssS'\xe5\x9b\xbd\xe6\xb0\x91\xe7\xbb\x8f\xe6\xb5\x8e'
p266
(dp267
(g3
g4
g3
tp268
I1946179
s(g4
g4
g3
tp269
I34694
s(g3
g3
g4
tp270
I514279
s(g3
g4
g4
tp271
I16120
s(g4
g3
g3
tp272
I240525
sg10
(g266
g11
g12
tp273
s(g4
g4
g4
tp274
I7957
s(g4
g3
g4
tp275
I10491
ssS'\xe7\xa7\x91\xe5\xad\xa6'
p276
(dp277
(g3
g4
g3
tp278
I1946179
s(g4
g4
g3
tp279
I124839
s(g3
g3
g4
tp280
I514279
s(g3
g4
g4
tp281
I16120
s(g4
g3
g3
tp282
I52219978
sg10
(g276
g11
g12
tp283
s(g4
g4
g4
tp284
I22864
s(g4
g3
g4
tp285
I14690
ssS'\xe5\xbf\x85\xe9\xa1\xbb'
p286
(dp287
(g3
g4
g3
tp288
I1946179
s(g4
g4
g3
tp289
I68474
s(g3
g3
g4
tp290
I514279
s(g3
g4
g4
tp291
I16120
s(g4
g3
g3
tp292
I3814746
sg10
(g286
g11
g12
tp293
s(g4
g4
g4
tp294
I29308
s(g4
g3
g4
tp295
I23233
ssS'\xe5\x86\x9c\xe6\x9d\x91'
p296
(dp297
(g3
g4
g3
tp298
I1946179
s(g4
g4
g3
tp299
I138922
s(g3
g3
g4
tp300
I514279
s(g3
g4
g4
tp301
I16120
s(g4
g3
g3
tp302
I9833945
sg10
(g296
g11
g12
tp303
s(g4
g4
g4
tp304
I19116
s(g4
g3
g4
tp305
I12620
ssS'\xe5\xb9\xb2\xe9\x83\xa8\xe9\x98\x9f\xe4\xbc\x8d'
p306
(dp307
(g3
g4
g3
tp308
I1946179
s(g4
g4
g3
tp309
I14066
s(g3
g3
g4
tp310
I514279
s(g3
g4
g4
tp311
I16120
s(g4
g3
g3
tp312
I157656
sg10
(g306
g11
g12
tp313
s(g4
g4
g4
tp314
I2772
s(g4
g3
g4
tp315
I4567
ssS'\xe4\xbb\xb7\xe5\x80\xbc\xe4\xbd\x93\xe7\xb3\xbb'
p316
(dp317
(g3
g4
g3
tp318
I1946179
s(g4
g4
g3
tp319
I7071
s(g3
g3
g4
tp320
I514279
s(g3
g4
g4
tp321
I16120
s(g4
g3
g3
tp322
I106474
sg10
(g316
g11
g12
tp323
s(g4
g4
g4
tp324
I2590
s(g4
g3
g4
tp325
I1865
ssS'\xe6\xb7\xb1\xe5\x8c\x96\xe6\x94\xb9\xe9\x9d\xa9'
p326
(dp327
(g3
g4
g3
tp328
I1946316
s(g4
g4
g3
tp329
I25168
s(g3
g3
g4
tp330
I514279
s(g3
g4
g4
tp331
I16120
s(g4
g3
g3
tp332
I1102719
sg10
(g326
g11
g12
tp333
s(g4
g4
g4
tp334
I10405
s(g4
g3
g4
tp335
I12354
ssS'\xe6\x9c\xba\xe6\x9e\x84'
p336
(dp337
(g3
g4
g3
tp338
I1946179
s(g4
g4
g3
tp339
I375580
s(g3
g3
g4
tp340
I514279
s(g3
g4
g4
tp341
I16120
s(g4
g3
g3
tp342
I2059165
sg10
(g336
g11
g12
tp343
s(g4
g4
g4
tp344
I20945
s(g4
g3
g4
tp345
I50538
ssS'\xe4\xbd\x93\xe7\xb3\xbb'
p346
(dp347
(g3
g4
g3
tp348
I1946179
s(g4
g4
g3
tp349
I92559
s(g3
g3
g4
tp350
I514279
s(g3
g4
g4
tp351
I16120
s(g4
g3
g3
tp352
I5371569
sg10
(g346
g11
g12
tp353
s(g4
g4
g4
tp354
I25712
s(g4
g3
g4
tp355
I22809
ssS'\xe5\x86\x9b\xe9\x98\x9f'
p356
(dp357
(g3
g4
g3
tp358
I1946316
s(g4
g4
g3
tp359
I41588
s(g3
g3
g4
tp360
I514279
s(g3
g4
g4
tp361
I16120
s(g4
g3
g3
tp362
I856568
sg10
(g356
g11
g12
tp363
s(g4
g4
g4
tp364
I17834
s(g4
g3
g4
tp365
I34762
ssS'\xe4\xb8\xad\xe5\xa4\xae\xe6\x94\xbf\xe6\xb2\xbb\xe5\xb1\x80'
p366
(dp367
(g3
g4
g3
tp368
I1946179
s(g4
g4
g3
tp369
I41545
s(g3
g3
g4
tp370
I514279
s(g3
g4
g4
tp371
I16120
s(g4
g3
g3
tp372
I344599
sg10
(g366
g11
g12
tp373
s(g4
g4
g4
tp374
I10609
s(g4
g3
g4
tp375
I12702
ssS'\xe5\x85\x9a\xe5\x86\x85'
p376
(dp377
(g3
g4
g3
tp378
I1946179
s(g4
g4
g3
tp379
I10865
s(g3
g3
g4
tp380
I514279
s(g3
g4
g4
tp381
I16120
s(g4
g3
g3
tp382
I146009
sg10
(g376
g11
g12
tp383
s(g4
g4
g4
tp384
I5101
s(g4
g3
g4
tp385
I4871
ssS'\xe5\x85\xac\xe6\x9c\x89\xe5\x88\xb6'
p386
(dp387
(g3
g4
g3
tp388
I1946179
s(g4
g4
g3
tp389
I56279
s(g3
g3
g4
tp390
I514279
s(g3
g4
g4
tp391
I16120
s(g4
g3
g3
tp392
I1303241
sg10
(g386
g11
g12
tp393
s(g4
g4
g4
tp394
I15773
s(g4
g3
g4
tp395
I11558
ssS'\xe5\xb9\xb2\xe9\x83\xa8'
p396
(dp397
(g3
g4
g3
tp398
I1946179
s(g4
g4
g3
tp399
I77715
s(g3
g3
g4
tp400
I514279
s(g3
g4
g4
tp401
I16120
s(g4
g3
g3
tp402
I3396324
sg10
(g396
g11
g12
tp403
s(g4
g4
g4
tp404
I19642
s(g4
g3
g4
tp405
I16163
ssS'\xe5\x8a\xa0\xe5\xbf\xab'
p406
(dp407
(g3
g4
g3
tp408
I1946179
s(g4
g4
g3
tp409
I155249
s(g3
g3
g4
tp410
I514279
s(g3
g4
g4
tp411
I16120
s(g4
g3
g3
tp412
I2697905
sg10
(g406
g11
g12
tp413
s(g4
g4
g4
tp414
I24026
s(g4
g3
g4
tp415
I22426
ssS'\xe5\x8d\x81\xe5\x85\xad\xe5\xa4\xa7'
p416
(dp417
(g3
g4
g3
tp418
I1946179
s(g4
g4
g3
tp419
I55348
s(g3
g3
g4
tp420
I514279
s(g3
g4
g4
tp421
I16120
s(g4
g3
g3
tp422
I140551
sg10
(g416
g11
g12
tp423
s(g4
g4
g4
tp424
I13369
s(g4
g3
g4
tp425
I16814
ssS'\xe5\x8d\x81\xe4\xba\x94\xe5\xa4\xa7'
p426
(dp427
(g3
g4
g3
tp428
I1946179
s(g4
g4
g3
tp429
I3269
s(g3
g3
g4
tp430
I514279
s(g3
g4
g4
tp431
I16120
s(g4
g3
g3
tp432
I122745
sg10
(g426
g11
g12
tp433
s(g4
g4
g4
tp434
I1289
s(g4
g3
g4
tp435
I1235
ssS'\xe5\x8d\x81\xe5\xb1\x8a'
p436
(dp437
(g3
g4
g3
tp438
I1946179
s(g4
g4
g3
tp439
I7526
s(g3
g3
g4
tp440
I514279
s(g3
g4
g4
tp441
I16120
s(g4
g3
g3
tp442
I227052
sg10
(g436
g11
g12
tp443
s(g4
g4
g4
tp444
I2094
s(g4
g3
g4
tp445
I3820
ssS'\xe6\x94\xbf\xe6\xb2\xbb\xe6\x96\x87\xe6\x98\x8e'
p446
(dp447
(g3
g4
g3
tp448
I1946179
s(g4
g4
g3
tp449
I4107
s(g3
g3
g4
tp450
I514279
s(g3
g4
g4
tp451
I16120
s(g4
g3
g3
tp452
I687393
sg10
(g446
g11
g12
tp453
s(g4
g4
g4
tp454
I4572
s(g4
g3
g4
tp455
I2097
ssS'\xe4\xbd\x93\xe5\x88\xb6\xe6\x94\xb9\xe9\x9d\xa9'
p456
(dp457
(g3
g4
g3
tp458
I1946179
s(g4
g4
g3
tp459
I32890
s(g3
g3
g4
tp460
I514279
s(g3
g4
g4
tp461
I16120
s(g4
g3
g3
tp462
I174402
sg10
(g456
g11
g12
tp463
s(g4
g4
g4
tp464
I10997
s(g4
g3
g4
tp465
I11653
ssS'\xe5\x85\x9a\xe7\x9a\x84\xe5\xbb\xba\xe8\xae\xbe'
p466
(dp467
(g3
g4
g3
tp468
I1946179
s(g4
g4
g3
tp469
I60818
s(g3
g3
g4
tp470
I514279
s(g3
g4
g4
tp471
I16120
s(g4
g3
g3
tp472
I172487
sg10
(g466
g11
g12
tp473
s(g4
g4
g4
tp474
I14411
s(g4
g3
g4
tp475
I15261
ssS'\xe5\x8d\x81\xe4\xb8\x83'
p476
(dp477
(g3
g4
g3
tp478
I1946179
s(g4
g4
g3
tp479
I77985
s(g3
g3
g4
tp480
I514290
s(g3
g4
g4
tp481
I16120
s(g4
g3
g3
tp482
I1747859
sg10
(g476
g11
g12
tp483
s(g4
g4
g4
tp484
I16345
s(g4
g3
g4
tp485
I13584
ssS'\xe4\xbd\x93\xe5\x88\xb6'
p486
(dp487
(g3
g4
g3
tp488
I1946179
s(g4
g4
g3
tp489
I81286
s(g3
g3
g4
tp490
I514279
s(g3
g4
g4
tp491
I16120
s(g4
g3
g3
tp492
I2341228
sg10
(g486
g11
g12
tp493
s(g4
g4
g4
tp494
I24501
s(g4
g3
g4
tp495
I23924
ssS'\xe6\x95\x99\xe8\x82\xb2'
p496
(dp497
(g3
g4
g3
tp498
I1946179
s(g4
g4
g3
tp499
I129623
s(g3
g3
g4
tp500
I514279
s(g3
g4
g4
tp501
I16120
s(g4
g3
g3
tp502
I31133728
sg10
(g496
g11
g12
tp503
s(g4
g4
g4
tp504
I22388
s(g4
g3
g4
tp505
I29064
ssS'\xe5\x92\x8c\xe8\xb0\x90'
p506
(dp507
(g3
g4
g3
tp508
I1946179
s(g4
g4
g3
tp509
I103797
s(g3
g3
g4
tp510
I514279
s(g3
g4
g4
tp511
I16120
s(g4
g3
g3
tp512
I1548608
sg10
(g506
g11
g12
tp513
s(g4
g4
g4
tp514
I22961
s(g4
g3
g4
tp515
I14185
ssS'\xe5\xb8\x82\xe5\x9c\xba'
p516
(dp517
(g3
g4
g3
tp518
I1946179
s(g4
g4
g3
tp519
I164833
s(g3
g3
g4
tp520
I514279
s(g3
g4
g4
tp521
I16120
s(g4
g3
g3
tp522
I30577177
sg10
(g516
g11
g12
tp523
s(g4
g4
g4
tp524
I29511
s(g4
g3
g4
tp525
I39423
ssS'\xe7\xbb\x8f\xe6\xb5\x8e\xe4\xbd\x93\xe5\x88\xb6'
p526
(dp527
(g3
g4
g3
tp528
I1946179
s(g4
g4
g3
tp529
I13743
s(g3
g3
g4
tp530
I514279
s(g3
g4
g4
tp531
I16120
s(g4
g3
g3
tp532
I112025
sg10
(g526
g11
g12
tp533
s(g4
g4
g4
tp534
I7105
s(g4
g3
g4
tp535
I6449
ssS'\xe4\xbc\x9a\xe8\xae\xae'
p536
(dp537
(g3
g4
g3
tp538
I1946179
s(g4
g4
g3
tp539
I231205
s(g3
g3
g4
tp540
I514279
s(g3
g4
g4
tp541
I16120
s(g4
g3
g3
tp542
I5365094
sg10
(g536
g11
g12
tp543
s(g4
g4
g4
tp544
I22730
s(g4
g3
g4
tp545
I30786
ssS'\xe6\x8a\x97\xe7\x81\xbe\xe6\x95\x91\xe7\x81\xbe'
p546
(dp547
(g3
g4
g3
tp548
I1946179
s(g4
g4
g3
tp549
I36952
s(g3
g3
g4
tp550
I514290
s(g3
g4
g4
tp551
I16120
s(g4
g3
g3
tp552
I22133
sg10
(g546
g11
g12
tp553
s(g4
g4
g4
tp554
I1729
s(g4
g3
g4
tp555
I3275
ssS'\xe6\x94\xbf\xe6\xb2\xbb'
p556
(dp557
(g3
g4
g3
tp558
I1946316
s(g4
g4
g3
tp559
I230721
s(g3
g3
g4
tp560
I514279
s(g3
g4
g4
tp561
I16120
s(g4
g3
g3
tp562
I9122419
sg10
(g556
g11
g12
tp563
s(g4
g4
g4
tp564
I24053
s(g4
g3
g4
tp565
I27596
ssS'\xe5\x9b\xbd\xe5\x8a\xa1\xe9\x99\xa2'
p566
(dp567
(g3
g4
g3
tp568
I1946179
s(g4
g4
g3
tp569
I60435
s(g3
g3
g4
tp570
I514279
s(g3
g4
g4
tp571
I16120
s(g4
g3
g3
tp572
I1277063
sg10
(g566
g11
g12
tp573
s(g4
g4
g4
tp574
I26447
s(g4
g3
g4
tp575
I19315
ssS'\xe4\xbc\x9f\xe5\xa4\xa7\xe6\x97\x97\xe5\xb8\x9c'
p576
(dp577
(g3
g4
g3
tp578
I1946179
s(g4
g4
g3
tp579
I31127
s(g3
g3
g4
tp580
I514279
s(g3
g4
g4
tp581
I16120
s(g4
g3
g3
tp582
I43812
sg10
(g576
g11
g12
tp583
s(g4
g4
g4
tp584
I8441
s(g4
g3
g4
tp585
I5719
ssS'\xe5\xb0\x8f\xe5\xba\xb7\xe7\xa4\xbe\xe4\xbc\x9a'
p586
(dp587
(g3
g4
g3
tp588
I1946179
s(g4
g4
g3
tp589
I43737
s(g3
g3
g4
tp590
I514279
s(g3
g4
g4
tp591
I16120
s(g4
g3
g3
tp592
I272334
sg10
(g586
g11
g12
tp593
s(g4
g4
g4
tp594
I17745
s(g4
g3
g4
tp595
I17873
ss.