(dp0
S'\xe4\xbe\x9d\xe6\xb3\x95'
p1
(dp2
(S'?'
p3
S'+'
p4
g3
tp5
I115408
s(g4
g4
g3
tp6
I57501
s(g3
g3
g4
tp7
I2136960
s(g3
g4
g4
tp8
I42186
s(g4
g3
g3
tp9
I530884
sS'words'
p10
(g1
S'\xe4\xba\xba\xe6\x9d\x83'
p11
S'\xe6\xb1\xa1\xe6\x9f\x93'
p12
tp13
s(g4
g4
g4
tp14
I56489
s(g4
g3
g4
tp15
I63437
ssS'\xe8\xae\xb8\xe8\xbf\x90\xe9\xb8\xbf'
p16
(dp17
(S'?'
p18
S'+'
p19
g18
tp20
I115382
s(g19
g19
g18
tp21
I1053
s(g18
g18
g19
tp22
I2136879
s(g18
g19
g19
tp23
I47202
s(g19
g18
g18
tp24
I4511
sS'words'
p25
(g16
S'\xe4\xba\xba\xe6\x9d\x83'
p26
S'\xe6\xb1\xa1\xe6\x9f\x93'
p27
tp28
s(g19
g19
g19
tp29
I508
s(g19
g18
g19
tp30
I2844
ssS'\xe7\xbb\x8f\xe8\x90\xa5\xe7\xae\xa1\xe7\x90\x86\xe8\x80\x85'
p31
(dp32
(g18
g19
g18
tp33
I931951
s(g19
g19
g18
tp34
I11113
s(g18
g18
g19
tp35
I2137598
s(g18
g19
g19
tp36
I47202
s(g19
g18
g18
tp37
I102747
sg25
(g31
g26
g27
tp38
s(g19
g19
g19
tp39
I5559
s(g19
g18
g19
tp40
I9975
ssS'\xe5\x85\xa8\xe5\x85\x9a'
p41
(dp42
(g3
g4
g3
tp43
I115408
s(g4
g4
g3
tp44
I61970
s(g3
g3
g4
tp45
I2136960
s(g3
g4
g4
tp46
I42186
s(g4
g3
g3
tp47
I74714
sg10
(g41
g11
g12
tp48
s(g4
g4
g4
tp49
I49693
s(g4
g3
g4
tp50
I56323
ssS'\xe7\xac\xac\xe5\x8d\x81\xe5\x85\xad\xe6\xac\xa1'
p51
(dp52
(g3
g4
g3
tp53
I115408
s(g4
g4
g3
tp54
I1160
s(g3
g3
g4
tp55
I2136960
s(g3
g4
g4
tp56
I42186
s(g4
g3
g3
tp57
I10239
sg10
(g51
g11
g12
tp58
s(g4
g4
g4
tp59
I2177
s(g4
g3
g4
tp60
I916
ssS'\xe5\x8a\xa0\xe5\xbf\xab'
p61
(dp62
(g18
g19
g18
tp63
I931951
s(g19
g19
g18
tp64
I53222
s(g18
g18
g19
tp65
I2137598
s(g18
g19
g19
tp66
I47202
s(g19
g18
g18
tp67
I1726488
sg25
(g61
g26
g27
tp68
s(g19
g19
g19
tp69
I54625
s(g19
g18
g19
tp70
I98957
ssS'\xe5\xb0\xb1\xe4\xb8\x9a'
p71
(dp72
(g3
g4
g3
tp73
I115408
s(g4
g4
g3
tp74
I52100
s(g3
g3
g4
tp75
I2136960
s(g3
g4
g4
tp76
I42186
s(g4
g3
g3
tp77
I3190785
sg10
(g71
g11
g12
tp78
s(g4
g4
g4
tp79
I56282
s(g4
g3
g4
tp80
I53849
ssS'\xe5\x85\xa8\xe5\x9b\xbd\xe4\xba\xba\xe5\xa4\xa7'
p81
(dp82
(S'?'
p83
S'+'
p84
g83
tp85
I115409
s(g84
g84
g83
tp86
I40888
s(g83
g83
g84
tp87
I2136962
s(g83
g84
g84
tp88
I42208
s(g84
g83
g83
tp89
I525418
sS'words'
p90
(g81
S'\xe4\xba\xba\xe6\x9d\x83'
p91
S'\xe6\xb1\xa1\xe6\x9f\x93'
p92
tp93
s(g84
g84
g84
tp94
I109001
s(g84
g83
g84
tp95
I30870
ssS'\xe7\x9d\x80\xe5\x8a\x9b'
p96
(dp97
(g3
g4
g3
tp98
I115408
s(g4
g4
g3
tp99
I55961
s(g3
g3
g4
tp100
I2136960
s(g3
g4
g4
tp101
I42186
s(g4
g3
g3
tp102
I301965
sg10
(g96
g11
g12
tp103
s(g4
g4
g4
tp104
I48994
s(g4
g3
g4
tp105
I58305
ssS'\xe6\x96\xb9\xe5\xbc\x8f'
p106
(dp107
(g3
g4
g3
tp108
I115408
s(g4
g4
g3
tp109
I75445
s(g3
g3
g4
tp110
I2136960
s(g3
g4
g4
tp111
I42186
s(g4
g3
g3
tp112
I3374201
sg10
(g106
g11
g12
tp113
s(g4
g4
g4
tp114
I56100
s(g4
g3
g4
tp115
I245579
ssS'\xe6\x94\xb9\xe9\x9d\xa9'
p116
(dp117
(g3
g4
g3
tp118
I115408
s(g4
g4
g3
tp119
I64487
s(g3
g3
g4
tp120
I2136879
s(g3
g4
g4
tp121
I42186
s(g4
g3
g3
tp122
I4358074
sg10
(g116
g11
g12
tp123
s(g4
g4
g4
tp124
I50455
s(g4
g3
g4
tp125
I77376
ssS'\xe7\xbe\xa4\xe4\xbc\x97'
p126
(dp127
(g3
g4
g3
tp128
I115408
s(g4
g4
g3
tp129
I54346
s(g3
g3
g4
tp130
I2136962
s(g3
g4
g4
tp131
I42186
s(g4
g3
g3
tp132
I381867
sg10
(g126
g11
g12
tp133
s(g4
g4
g4
tp134
I53434
s(g4
g3
g4
tp135
I64131
ssS'\xe4\xb8\x80\xe6\xac\xa1'
p136
(dp137
(g3
g4
g3
tp138
I115408
s(g4
g4
g3
tp139
I30664
s(g3
g3
g4
tp140
I2136960
s(g3
g4
g4
tp141
I42186
s(g4
g3
g3
tp142
I5627401
sg10
(g136
g11
g12
tp143
s(g4
g4
g4
tp144
I23492
s(g4
g3
g4
tp145
I74252
ssS'\xe7\xb9\x81\xe8\x8d\xa3'
p146
(dp147
(g3
g4
g3
tp148
I115408
s(g4
g4
g3
tp149
I58145
s(g3
g3
g4
tp150
I2136960
s(g3
g4
g4
tp151
I42186
s(g4
g3
g3
tp152
I231452
sg10
(g146
g11
g12
tp153
s(g4
g4
g4
tp154
I57067
s(g4
g3
g4
tp155
I61521
ssS'\xe5\x9f\x8e\xe4\xb9\xa1'
p156
(dp157
(g83
g84
g83
tp158
I115408
s(g84
g84
g83
tp159
I54053
s(g83
g83
g84
tp160
I2136962
s(g83
g84
g84
tp161
I42208
s(g84
g83
g83
tp162
I652197
sg90
(g156
g91
g92
tp163
s(g84
g84
g84
tp164
I53929
s(g84
g83
g84
tp165
I69148
ssS'\xe6\x80\x9d\xe6\x83\xb3'
p166
(dp167
(g3
g4
g3
tp168
I115408
s(g4
g4
g3
tp169
I71204
s(g3
g3
g4
tp170
I2136960
s(g3
g4
g4
tp171
I42186
s(g4
g3
g3
tp172
I2580005
sg10
(g166
g11
g12
tp173
s(g4
g4
g4
tp174
I57128
s(g4
g3
g4
tp175
I65781
ssS'\xe4\xbd\x93\xe5\x88\xb6\xe6\x94\xb9\xe9\x9d\xa9'
p176
(dp177
(g18
g19
g18
tp178
I931951
s(g19
g19
g18
tp179
I26722
s(g18
g18
g19
tp180
I2137598
s(g18
g19
g19
tp181
I47202
s(g19
g18
g18
tp182
I15880
sg25
(g176
g26
g27
tp183
s(g19
g19
g19
tp184
I52894
s(g19
g18
g19
tp185
I32215
ssS'\xe7\x8e\xb0\xe4\xbb\xa3\xe5\x8c\x96'
p186
(dp187
(g3
g4
g3
tp188
I115408
s(g4
g4
g3
tp189
I72419
s(g3
g3
g4
tp190
I2136960
s(g3
g4
g4
tp191
I42186
s(g4
g3
g3
tp192
I1846372
sg10
(g186
g11
g12
tp193
s(g4
g4
g4
tp194
I62199
s(g4
g3
g4
tp195
I79374
ssS'\xe6\x9c\xba\xe5\x88\xb6'
p196
(dp197
(g3
g4
g3
tp198
I115408
s(g4
g4
g3
tp199
I73795
s(g3
g3
g4
tp200
I2136960
s(g3
g4
g4
tp201
I42186
s(g4
g3
g3
tp202
I3057879
sg10
(g196
g11
g12
tp203
s(g4
g4
g4
tp204
I59081
s(g4
g3
g4
tp205
I117122
ssS'\xe4\xb8\xad\xe5\xa4\xae\xe5\xa7\x94\xe5\x91\x98\xe4\xbc\x9a'
p206
(dp207
(g83
g84
g83
tp208
I115408
s(g84
g84
g83
tp209
I6348
s(g83
g83
g84
tp210
I2136962
s(g83
g84
g84
tp211
I42208
s(g84
g83
g83
tp212
I24725
sg90
(g206
g91
g92
tp213
s(g84
g84
g84
tp214
I11421
s(g84
g83
g84
tp215
I4057
ssS'\xe5\x92\x8c\xe8\xb0\x90\xe7\xa4\xbe\xe4\xbc\x9a'
p216
(dp217
(g83
g84
g83
tp218
I115409
s(g84
g84
g83
tp219
I15516
s(g83
g83
g84
tp220
I2136962
s(g83
g84
g84
tp221
I42208
s(g84
g83
g83
tp222
I122289
sg90
(g216
g91
g92
tp223
s(g84
g84
g84
tp224
I29295
s(g84
g83
g84
tp225
I13585
ssS'\xe4\xbd\x93\xe7\xb3\xbb'
p226
(dp227
(g18
g19
g18
tp228
I931951
s(g19
g19
g18
tp229
I72686
s(g18
g18
g19
tp230
I2136879
s(g18
g19
g19
tp231
I42186
s(g19
g18
g18
tp232
I2573597
sg25
(g226
g26
g27
tp233
s(g19
g19
g19
tp234
I54341
s(g19
g18
g19
tp235
I96160
ssS'\xe5\x86\x9b\xe9\x98\x9f'
p236
(dp237
(g18
g19
g18
tp238
I931951
s(g19
g19
g18
tp239
I43280
s(g18
g18
g19
tp240
I2136871
s(g18
g19
g19
tp241
I42186
s(g19
g18
g18
tp242
I182017
sg25
(g236
g26
g27
tp243
s(g19
g19
g19
tp244
I78813
s(g19
g18
g19
tp245
I37280
ssS'\xe5\x85\x9a\xe7\x9a\x84\xe5\xbb\xba\xe8\xae\xbe'
p246
(dp247
(g18
g19
g18
tp248
I931951
s(g19
g19
g18
tp249
I62523
s(g18
g18
g19
tp250
I2136879
s(g18
g19
g19
tp251
I42186
s(g19
g18
g18
tp252
I215880
sg25
(g246
g26
g27
tp253
s(g19
g19
g19
tp254
I57126
s(g19
g18
g19
tp255
I55428
ssS'\xe5\xb8\x82\xe5\x9c\xba'
p256
(dp257
(g18
g19
g18
tp258
I115382
s(g19
g19
g18
tp259
I57583
s(g18
g18
g19
tp260
I2136879
s(g18
g19
g19
tp261
I47202
s(g19
g18
g18
tp262
I14805493
sg25
(g256
g26
g27
tp263
s(g19
g19
g19
tp264
I52540
s(g19
g18
g19
tp265
I112591
ssS'\xe5\x8d\x81\xe5\x85\xad\xe5\xa4\xa7'
p266
(dp267
(g18
g19
g18
tp268
I931951
s(g19
g19
g18
tp269
I56302
s(g18
g18
g19
tp270
I2137598
s(g18
g19
g19
tp271
I47202
s(g19
g18
g18
tp272
I32982
sg25
(g266
g26
g27
tp273
s(g19
g19
g19
tp274
I43173
s(g19
g18
g19
tp275
I55937
ssS'\xe4\xbf\x83\xe8\xbf\x9b'
p276
(dp277
(g3
g4
g3
tp278
I115408
s(g4
g4
g3
tp279
I65688
s(g3
g3
g4
tp280
I2136962
s(g3
g4
g4
tp281
I42186
s(g4
g3
g3
tp282
I1621953
sg10
(g276
g11
g12
tp283
s(g4
g4
g4
tp284
I55833
s(g4
g3
g4
tp285
I115922
ssS'\xe6\x94\xbf\xe6\xb2\xbb\xe6\x96\x87\xe6\x98\x8e'
p286
(dp287
(g18
g19
g18
tp288
I931951
s(g19
g19
g18
tp289
I6429
s(g18
g18
g19
tp290
I2136879
s(g18
g19
g19
tp291
I47202
s(g19
g18
g18
tp292
I22955
sg25
(g286
g26
g27
tp293
s(g19
g19
g19
tp294
I20745
s(g19
g18
g19
tp295
I3257
ssS'\xe5\x8d\x8f\xe8\xb0\x83'
p296
(dp297
(g3
g4
g3
tp298
I115408
s(g4
g4
g3
tp299
I58456
s(g3
g3
g4
tp300
I2136960
s(g3
g4
g4
tp301
I42208
s(g4
g3
g3
tp302
I161958
sg10
(g296
g11
g12
tp303
s(g4
g4
g4
tp304
I56642
s(g4
g3
g4
tp305
I72049
ssS'\xe6\xb7\xb1\xe5\x8c\x96'
p306
(dp307
(g3
g4
g3
tp308
I115408
s(g4
g4
g3
tp309
I52634
s(g3
g3
g4
tp310
I2136960
s(g3
g4
g4
tp311
I42186
s(g4
g3
g3
tp312
I1158423
sg10
(g306
g11
g12
tp313
s(g4
g4
g4
tp314
I54689
s(g4
g3
g4
tp315
I55911
ssS'\xe6\x95\x99\xe8\x82\xb2'
p316
(dp317
(g18
g19
g18
tp318
I931951
s(g19
g19
g18
tp319
I77048
s(g18
g18
g19
tp320
I2137598
s(g18
g19
g19
tp321
I47202
s(g19
g18
g18
tp322
I56688385
sg25
(g316
g26
g27
tp323
s(g19
g19
g19
tp324
I52366
s(g19
g18
g19
tp325
I133337
ssS'\xe7\xbb\x8f\xe6\xb5\x8e\xe4\xbd\x93\xe5\x88\xb6'
p326
(dp327
(g18
g19
g18
tp328
I931951
s(g19
g19
g18
tp329
I15454
s(g18
g18
g19
tp330
I2137598
s(g18
g19
g19
tp331
I47202
s(g19
g18
g18
tp332
I54991
sg25
(g326
g26
g27
tp333
s(g19
g19
g19
tp334
I26626
s(g19
g18
g19
tp335
I13129
ssS'\xe6\x88\x98\xe7\x95\xa5'
p336
(dp337
(g3
g4
g3
tp338
I115408
s(g4
g4
g3
tp339
I53885
s(g3
g3
g4
tp340
I2136960
s(g3
g4
g4
tp341
I42186
s(g4
g3
g3
tp342
I3176434
sg10
(g336
g11
g12
tp343
s(g4
g4
g4
tp344
I53204
s(g4
g3
g4
tp345
I63051
ssS'\xe7\x94\x9f\xe4\xba\xa7\xe5\x8a\x9b'
p346
(dp347
(g83
g84
g83
tp348
I115408
s(g84
g84
g83
tp349
I60436
s(g83
g83
g84
tp350
I2136962
s(g83
g84
g84
tp351
I42208
s(g84
g83
g83
tp352
I85259
sg90
(g346
g91
g92
tp353
s(g84
g84
g84
tp354
I55485
s(g84
g83
g84
tp355
I63316
ssS'\xe4\xbc\x9f\xe5\xa4\xa7\xe6\x97\x97\xe5\xb8\x9c'
p356
(dp357
(g18
g19
g18
tp358
I931951
s(g19
g19
g18
tp359
I17650
s(g18
g18
g19
tp360
I2137598
s(g18
g19
g19
tp361
I47202
s(g19
g18
g18
tp362
I7257
sg25
(g356
g26
g27
tp363
s(g19
g19
g19
tp364
I48226
s(g19
g18
g19
tp365
I27362
ssS'\xe5\x8f\xb8\xe6\xb3\x95'
p366
(dp367
(g3
g4
g3
tp368
I115408
s(g4
g4
g3
tp369
I68961
s(g3
g3
g4
tp370
I2136960
s(g3
g4
g4
tp371
I42186
s(g4
g3
g3
tp372
I744381
sg10
(g366
g11
g12
tp373
s(g4
g4
g4
tp374
I47052
s(g4
g3
g4
tp375
I50258
ssS'\xe6\xb1\x9f\xe6\xb3\xbd\xe6\xb0\x91'
p376
(dp377
(g83
g84
g83
tp378
I115409
s(g84
g84
g83
tp379
I16179
s(g83
g83
g84
tp380
I2136962
s(g83
g84
g84
tp381
I42208
s(g84
g83
g83
tp382
I80399
sg90
(g376
g91
g92
tp383
s(g84
g84
g84
tp384
I3163
s(g84
g83
g84
tp385
I7947
ssS'\xe5\x88\x9b\xe6\x96\xb0'
p386
(dp387
(g18
g19
g18
tp388
I115382
s(g19
g19
g18
tp389
I52384
s(g18
g18
g19
tp390
I2136879
s(g18
g19
g19
tp391
I42186
s(g19
g18
g18
tp392
I2824150
sg25
(g386
g26
g27
tp393
s(g19
g19
g19
tp394
I53140
s(g19
g18
g19
tp395
I56650
ssS'\xe5\x90\x8c\xe5\xbf\x97'
p396
(dp397
(g3
g4
g3
tp398
I115408
s(g4
g4
g3
tp399
I53924
s(g3
g3
g4
tp400
I2136879
s(g3
g4
g4
tp401
I42186
s(g4
g3
g3
tp402
I801246
sg10
(g396
g11
g12
tp403
s(g4
g4
g4
tp404
I54387
s(g4
g3
g4
tp405
I56840
ssS'\xe8\x81\x8c\xe8\x83\xbd'
p406
(dp407
(g3
g4
g3
tp408
I115408
s(g4
g4
g3
tp409
I68777
s(g3
g3
g4
tp410
I2136960
s(g3
g4
g4
tp411
I42186
s(g4
g3
g3
tp412
I741994
sg10
(g406
g11
g12
tp413
s(g4
g4
g4
tp414
I53455
s(g4
g3
g4
tp415
I66642
ssS'\xe5\x86\x9c\xe6\xb0\x91'
p416
(dp417
(g83
g84
g83
tp418
I115408
s(g84
g84
g83
tp419
I53565
s(g83
g83
g84
tp420
I2136962
s(g83
g84
g84
tp421
I42208
s(g84
g83
g83
tp422
I983727
sg90
(g416
g91
g92
tp423
s(g84
g84
g84
tp424
I54897
s(g84
g83
g84
tp425
I64103
ssS'\xe5\x85\xa8\xe5\x9b\xbd\xe6\x94\xbf\xe5\x8d\x8f'
p426
(dp427
(g3
g4
g3
tp428
I115408
s(g4
g4
g3
tp429
I23347
s(g3
g3
g4
tp430
I2136960
s(g3
g4
g4
tp431
I42186
s(g4
g3
g3
tp432
I57455
sg10
(g426
g11
g12
tp433
s(g4
g4
g4
tp434
I27577
s(g4
g3
g4
tp435
I20904
ssS'\xe5\x8d\x81\xe5\xb1\x8a'
p436
(dp437
(g18
g19
g18
tp438
I115382
s(g19
g19
g18
tp439
I7248
s(g18
g18
g19
tp440
I2136879
s(g18
g19
g19
tp441
I42186
s(g19
g18
g18
tp442
I274934
sg25
(g436
g26
g27
tp443
s(g19
g19
g19
tp444
I10645
s(g19
g18
g19
tp445
I2188
ssS'\xe5\x8a\xa0\xe5\xbc\xba'
p446
(dp447
(g18
g19
g18
tp448
I115382
s(g19
g19
g18
tp449
I63343
s(g18
g18
g19
tp450
I2136879
s(g18
g19
g19
tp451
I42186
s(g19
g18
g18
tp452
I4881650
sg25
(g446
g26
g27
tp453
s(g19
g19
g19
tp454
I51946
s(g19
g18
g19
tp455
I181867
ssS'\xe9\x82\x93\xe5\xb0\x8f\xe5\xb9\xb3\xe7\x90\x86\xe8\xae\xba'
p456
(dp457
(g18
g19
g18
tp458
I931951
s(g19
g19
g18
tp459
I27449
s(g18
g18
g19
tp460
I2136879
s(g18
g19
g19
tp461
I42186
s(g19
g18
g18
tp462
I452779
sg25
(g456
g26
g27
tp463
s(g19
g19
g19
tp464
I54108
s(g19
g18
g19
tp465
I35816
ssS'\xe4\xb8\x89\xe4\xb8\xaa\xe4\xbb\xa3\xe8\xa1\xa8'
p466
(dp467
(g83
g84
g83
tp468
I115408
s(g84
g84
g83
tp469
I14028
s(g83
g83
g84
tp470
I2136962
s(g83
g84
g84
tp471
I42208
s(g84
g83
g83
tp472
I18323
sg90
(g466
g91
g92
tp473
s(g84
g84
g84
tp474
I43736
s(g84
g83
g84
tp475
I11731
ssS'\xe5\x8f\x91\xe5\xb1\x95\xe8\xa7\x82'
p476
(dp477
(g18
g19
g18
tp478
I931951
s(g19
g19
g18
tp479
I55955
s(g18
g18
g19
tp480
I2137598
s(g18
g19
g19
tp481
I47202
s(g19
g18
g18
tp482
I103780
sg25
(g476
g26
g27
tp483
s(g19
g19
g19
tp484
I51319
s(g19
g18
g19
tp485
I60900
ssS'\xe4\xb9\x9d\xe5\xb1\x8a'
p486
(dp487
(g18
g19
g18
tp488
I931951
s(g19
g19
g18
tp489
I8362
s(g18
g18
g19
tp490
I2136879
s(g18
g19
g19
tp491
I42186
s(g19
g18
g18
tp492
I73879
sg25
(g486
g26
g27
tp493
s(g19
g19
g19
tp494
I10791
s(g19
g18
g19
tp495
I2004
ssS'\xe5\x8d\x81\xe4\xb8\x80\xe5\xb1\x8a'
p496
(dp497
(g18
g19
g18
tp498
I931951
s(g19
g19
g18
tp499
I30496
s(g18
g18
g19
tp500
I2137598
s(g18
g19
g19
tp501
I47202
s(g19
g18
g18
tp502
I290019
sg25
(g496
g26
g27
tp503
s(g19
g19
g19
tp504
I100104
s(g19
g18
g19
tp505
I18589
ssS'\xe5\xa7\x8b\xe7\xbb\x88'
p506
(dp507
(g18
g19
g18
tp508
I931981
s(g19
g19
g18
tp509
I64012
s(g18
g18
g19
tp510
I2137598
s(g18
g19
g19
tp511
I47202
s(g19
g18
g18
tp512
I1437770
sg25
(g506
g26
g27
tp513
s(g19
g19
g19
tp514
I56729
s(g19
g18
g19
tp515
I72617
ssS'\xe7\xbb\x9f\xe7\xad\xb9'
p516
(dp517
(g83
g84
g83
tp518
I115408
s(g84
g84
g83
tp519
I56318
s(g83
g83
g84
tp520
I2136962
s(g83
g84
g84
tp521
I42208
s(g84
g83
g83
tp522
I98342
sg90
(g516
g91
g92
tp523
s(g84
g84
g84
tp524
I53383
s(g84
g83
g84
tp525
I58965
ssS'\xe7\xac\xac\xe5\x8d\x81\xe5\x85\xad\xe5\xb1\x8a'
p526
(dp527
(g18
g19
g18
tp528
I931951
s(g19
g19
g18
tp529
I26864
s(g18
g18
g19
tp530
I2137598
s(g18
g19
g19
tp531
I47202
s(g19
g18
g18
tp532
I75782
sg25
(g526
g26
g27
tp533
s(g19
g19
g19
tp534
I25385
s(g19
g18
g19
tp535
I9093
ssS'\xe5\xbf\x85\xe9\xa1\xbb'
p536
(dp537
(g18
g19
g18
tp538
I931951
s(g19
g19
g18
tp539
I84748
s(g18
g18
g19
tp540
I2137598
s(g18
g19
g19
tp541
I47202
s(g19
g18
g18
tp542
I345440
sg25
(g536
g26
g27
tp543
s(g19
g19
g19
tp544
I58867
s(g19
g18
g19
tp545
I96269
ssS'\xe8\xa1\x8c\xe6\x94\xbf'
p546
(dp547
(g18
g19
g18
tp548
I115382
s(g19
g19
g18
tp549
I62808
s(g18
g18
g19
tp550
I2136879
s(g18
g19
g19
tp551
I42186
s(g19
g18
g18
tp552
I1995531
sg25
(g546
g26
g27
tp553
s(g19
g19
g19
tp554
I50448
s(g19
g18
g19
tp555
I63195
ssS'\xe5\x86\x9c\xe4\xb8\x9a'
p556
(dp557
(g83
g84
g83
tp558
I115408
s(g84
g84
g83
tp559
I54789
s(g83
g83
g84
tp560
I2136962
s(g83
g84
g84
tp561
I42208
s(g84
g83
g83
tp562
I5646791
sg90
(g556
g91
g92
tp563
s(g84
g84
g84
tp564
I53270
s(g84
g83
g84
tp565
I163289
ssS'\xe6\x9e\x84\xe5\xbb\xba'
p566
(dp567
(g3
g4
g3
tp568
I115408
s(g4
g4
g3
tp569
I58296
s(g3
g3
g4
tp570
I2136960
s(g3
g4
g4
tp571
I42186
s(g4
g3
g3
tp572
I877346
sg10
(g566
g11
g12
tp573
s(g4
g4
g4
tp574
I50220
s(g4
g3
g4
tp575
I241487
ssS'\xe4\xbc\x81\xe4\xb8\x9a'
p576
(dp577
(g83
g84
g83
tp578
I115408
s(g84
g84
g83
tp579
I58978
s(g83
g83
g84
tp580
I2136962
s(g83
g84
g84
tp581
I42208
s(g84
g83
g83
tp582
I29916199
sg90
(g576
g91
g92
tp583
s(g84
g84
g84
tp584
I44501
s(g84
g83
g84
tp585
I644992
ssS'\xe4\xba\x8b\xe4\xb8\x9a'
p586
(dp587
(g83
g84
g83
tp588
I115408
s(g84
g84
g83
tp589
I71394
s(g83
g83
g84
tp590
I2136962
s(g83
g84
g84
tp591
I42208
s(g84
g83
g83
tp592
I11601470
sg90
(g586
g91
g92
tp593
s(g84
g84
g84
tp594
I50187
s(g84
g83
g84
tp595
I198928
ssS'\xe7\x89\xb9\xe8\x89\xb2'
p596
(dp597
(g18
g19
g18
tp598
I931951
s(g19
g19
g18
tp599
I56090
s(g18
g18
g19
tp600
I2137598
s(g18
g19
g19
tp601
I47202
s(g19
g18
g18
tp602
I7393272
sg25
(g596
g26
g27
tp603
s(g19
g19
g19
tp604
I56168
s(g19
g18
g19
tp605
I63931
ssS'\xe4\xba\xba\xe6\xb0\x91'
p606
(dp607
(g83
g84
g83
tp608
I115408
s(g84
g84
g83
tp609
I96514
s(g83
g83
g84
tp610
I2136962
s(g83
g84
g84
tp611
I42208
s(g84
g83
g83
tp612
I15966651
sg90
(g606
g91
g92
tp613
s(g84
g84
g84
tp614
I44444
s(g84
g83
g84
tp615
I246281
ssS'\xe7\xb2\xbe\xe7\xa5\x9e'
p616
(dp617
(g83
g84
g83
tp618
I115408
s(g84
g84
g83
tp619
I65942
s(g83
g83
g84
tp620
I2136962
s(g83
g84
g84
tp621
I42208
s(g84
g83
g83
tp622
I1754632
sg90
(g616
g91
g92
tp623
s(g84
g84
g84
tp624
I54636
s(g84
g83
g84
tp625
I68289
ssS'\xe5\x8d\x81\xe4\xb8\x83'
p626
(dp627
(g18
g19
g18
tp628
I115382
s(g19
g19
g18
tp629
I67889
s(g18
g18
g19
tp630
I2136879
s(g18
g19
g19
tp631
I42186
s(g19
g18
g18
tp632
I516324
sg25
(g626
g26
g27
tp633
s(g19
g19
g19
tp634
I53693
s(g19
g18
g19
tp635
I76295
ssS'\xe4\xbd\x93\xe5\x88\xb6'
p636
(dp637
(g18
g19
g18
tp638
I931951
s(g19
g19
g18
tp639
I72981
s(g18
g18
g19
tp640
I2137598
s(g18
g19
g19
tp641
I47202
s(g19
g18
g18
tp642
I2846795
sg25
(g636
g26
g27
tp643
s(g19
g19
g19
tp644
I59742
s(g19
g18
g19
tp645
I83788
ssS'\xe5\x92\x8c\xe8\xb0\x90'
p646
(dp647
(g18
g19
g18
tp648
I931951
s(g19
g19
g18
tp649
I60394
s(g18
g18
g19
tp650
I2136879
s(g18
g19
g19
tp651
I47202
s(g19
g18
g18
tp652
I665651
sg25
(g646
g26
g27
tp653
s(g19
g19
g19
tp654
I58315
s(g19
g18
g19
tp655
I65228
ssS'\xe6\xb0\x91\xe4\xb8\xbb'
p656
(dp657
(g18
g19
g18
tp658
I115382
s(g19
g19
g18
tp659
I69589
s(g18
g18
g19
tp660
I2136879
s(g18
g19
g19
tp661
I42186
s(g19
g18
g18
tp662
I762075
sg25
(g656
g26
g27
tp663
s(g19
g19
g19
tp664
I42236
s(g19
g18
g19
tp665
I55538
ssS'\xe6\x94\xbf\xe6\xb2\xbb'
p666
(dp667
(g18
g19
g18
tp668
I931951
s(g19
g19
g18
tp669
I52099
s(g18
g18
g19
tp670
I2137598
s(g18
g19
g19
tp671
I47202
s(g19
g18
g18
tp672
I9053888
sg25
(g666
g26
g27
tp673
s(g19
g19
g19
tp674
I45652
s(g19
g18
g19
tp675
I120386
ssS'\xe6\x96\x87\xe5\x8c\x96'
p676
(dp677
(g83
g84
g83
tp678
I115408
s(g84
g84
g83
tp679
I69879
s(g83
g83
g84
tp680
I2136962
s(g83
g84
g84
tp681
I42208
s(g84
g83
g83
tp682
I7586742
sg90
(g676
g91
g92
tp683
s(g84
g84
g84
tp684
I54434
s(g84
g83
g84
tp685
I77096
ssS'\xe4\xbf\x9d\xe6\x8c\x81'
p686
(dp687
(g3
g4
g3
tp688
I115408
s(g4
g4
g3
tp689
I61411
s(g3
g3
g4
tp690
I2136960
s(g3
g4
g4
tp691
I42208
s(g4
g3
g3
tp692
I815371
sg10
(g686
g11
g12
tp693
s(g4
g4
g4
tp694
I54587
s(g4
g3
g4
tp695
I77999
ssS'\xe5\xae\x9e\xe6\x96\xbd'
p696
(dp697
(g3
g4
g3
tp698
I115408
s(g4
g4
g3
tp699
I75407
s(g3
g3
g4
tp700
I2136879
s(g3
g4
g4
tp701
I42186
s(g4
g3
g3
tp702
I1211598
sg10
(g696
g11
g12
tp703
s(g4
g4
g4
tp704
I52464
s(g4
g3
g4
tp705
I301042
ssS'\xe5\xa2\x9e\xe5\xbc\xba'
p706
(dp707
(g3
g4
g3
tp708
I115408
s(g4
g4
g3
tp709
I67712
s(g3
g3
g4
tp710
I2136960
s(g3
g4
g4
tp711
I42208
s(g4
g3
g3
tp712
I5201821
sg10
(g706
g11
g12
tp713
s(g4
g4
g4
tp714
I58652
s(g4
g3
g4
tp715
I224564
ssS'\xe6\x9c\xba\xe6\x9e\x84'
p716
(dp717
(g18
g19
g18
tp718
I931951
s(g19
g19
g18
tp719
I95679
s(g18
g18
g19
tp720
I2136871
s(g18
g19
g19
tp721
I42186
s(g19
g18
g18
tp722
I3285717
sg25
(g716
g26
g27
tp723
s(g19
g19
g19
tp724
I40026
s(g19
g18
g19
tp725
I408470
ssS'\xe5\x9b\xbd\xe6\x9c\x89\xe7\xbb\x8f\xe6\xb5\x8e'
p726
(dp727
(g18
g19
g18
tp728
I115382
s(g19
g19
g18
tp729
I4912
s(g18
g18
g19
tp730
I2136879
s(g18
g19
g19
tp731
I42186
s(g19
g18
g18
tp732
I313260
sg25
(g726
g26
g27
tp733
s(g19
g19
g19
tp734
I10611
s(g19
g18
g19
tp735
I3254
ssS'\xe5\xb0\x8f\xe5\xba\xb7\xe7\xa4\xbe\xe4\xbc\x9a'
p736
(dp737
(g18
g19
g18
tp738
I931951
s(g19
g19
g18
tp739
I31421
s(g18
g18
g19
tp740
I2136879
s(g18
g19
g19
tp741
I42186
s(g19
g18
g18
tp742
I69072
sg25
(g736
g26
g27
tp743
s(g19
g19
g19
tp744
I40785
s(g19
g18
g19
tp745
I37456
ssS'\xe6\x88\x91\xe5\x9b\xbd'
p746
(dp747
(g18
g19
g18
tp748
I931951
s(g19
g19
g18
tp749
I189489
s(g18
g18
g19
tp750
I2137598
s(g18
g19
g19
tp751
I47202
s(g19
g18
g18
tp752
I1754872
sg25
(g746
g26
g27
tp753
s(g19
g19
g19
tp754
I32735
s(g19
g18
g19
tp755
I958325
ssS'\xe7\xa4\xbe\xe4\xbc\x9a'
p756
(dp757
(g3
g4
g3
tp758
I115408
s(g4
g4
g3
tp759
I85347
s(g3
g3
g4
tp760
I2136960
s(g3
g4
g4
tp761
I42186
s(g4
g3
g3
tp762
I5967536
sg10
(g756
g11
g12
tp763
s(g4
g4
g4
tp764
I46564
s(g4
g3
g4
tp765
I134965
ssS'\xe5\x90\x84\xe6\x97\x8f\xe4\xba\xba\xe6\xb0\x91'
p766
(dp767
(g18
g19
g18
tp768
I931951
s(g19
g19
g18
tp769
I39754
s(g18
g18
g19
tp770
I2136879
s(g18
g19
g19
tp771
I42186
s(g19
g18
g18
tp772
I22576
sg25
(g766
g26
g27
tp773
s(g19
g19
g19
tp774
I51153
s(g19
g18
g19
tp775
I42357
ssS'\xe7\xa4\xbe\xe4\xbc\x9a\xe4\xb8\xbb\xe4\xb9\x89'
p776
(dp777
(g18
g19
g18
tp778
I931951
s(g19
g19
g18
tp779
I27698
s(g18
g18
g19
tp780
I2136879
s(g18
g19
g19
tp781
I42186
s(g19
g18
g18
tp782
I319387
sg25
(g776
g26
g27
tp783
s(g19
g19
g19
tp784
I50738
s(g19
g18
g19
tp785
I30420
ssS'\xe9\x87\x8d\xe7\x82\xb9'
p786
(dp787
(g83
g84
g83
tp788
I115408
s(g84
g84
g83
tp789
I56450
s(g83
g83
g84
tp790
I2136960
s(g83
g84
g84
tp791
I42208
s(g84
g83
g83
tp792
I3132047
sg90
(g786
g91
g92
tp793
s(g84
g84
g84
tp794
I53079
s(g84
g83
g84
tp795
I127229
ssS'\xe8\x83\xbd\xe5\x8a\x9b'
p796
(dp797
(g3
g4
g3
tp798
I115408
s(g4
g4
g3
tp799
I62110
s(g3
g3
g4
tp800
I2136960
s(g3
g4
g4
tp801
I42186
s(g4
g3
g3
tp802
I9334078
sg10
(g796
g11
g12
tp803
s(g4
g4
g4
tp804
I56794
s(g4
g3
g4
tp805
I82805
ssS'\xe5\x9f\xba\xe6\x9c\xac'
p806
(dp807
(g18
g19
g18
tp808
I931951
s(g19
g19
g18
tp809
I179991
s(g18
g18
g19
tp810
I2137598
s(g18
g19
g19
tp811
I47202
s(g19
g18
g18
tp812
I2612875
sg25
(g806
g26
g27
tp813
s(g19
g19
g19
tp814
I42850
s(g19
g18
g19
tp815
I558885
ssS'\xe5\x81\xa5\xe5\x85\xa8'
p816
(dp817
(g3
g4
g3
tp818
I115408
s(g4
g4
g3
tp819
I60038
s(g3
g3
g4
tp820
I2136962
s(g3
g4
g4
tp821
I42208
s(g4
g3
g3
tp822
I58079
sg10
(g816
g11
g12
tp823
s(g4
g4
g4
tp824
I58053
s(g4
g3
g4
tp825
I66144
ssS'\xe9\x9d\x9e\xe5\x85\xac\xe6\x9c\x89\xe5\x88\xb6'
p826
(dp827
(g3
g4
g3
tp828
I115408
s(g4
g4
g3
tp829
I29318
s(g3
g3
g4
tp830
I2136960
s(g3
g4
g4
tp831
I42186
s(g4
g3
g3
tp832
I20905
sg10
(g826
g11
g12
tp833
s(g4
g4
g4
tp834
I73506
s(g4
g3
g4
tp835
I40426
ssS'\xe7\xae\xa1\xe7\x90\x86\xe4\xbd\x93\xe5\x88\xb6'
p836
(dp837
(g18
g19
g18
tp838
I931951
s(g19
g19
g18
tp839
I17832
s(g18
g18
g19
tp840
I2137598
s(g18
g19
g19
tp841
I47202
s(g19
g18
g18
tp842
I899603
sg25
(g836
g26
g27
tp843
s(g19
g19
g19
tp844
I33399
s(g19
g18
g19
tp845
I28966
ssS'\xe4\xbe\x9d\xe6\xb3\x95\xe6\xb2\xbb\xe5\x9b\xbd'
p846
(dp847
(g18
g19
g18
tp848
I115389
s(g19
g19
g18
tp849
I50276
s(g18
g18
g19
tp850
I2136879
s(g18
g19
g19
tp851
I42186
s(g19
g18
g18
tp852
I190926
sg25
(g846
g26
g27
tp853
s(g19
g19
g19
tp854
I70544
s(g19
g18
g19
tp855
I43397
ssS'\xe7\xac\xac\xe5\x8d\x81\xe4\xba\x94\xe5\xb1\x8a'
p856
(dp857
(g3
g4
g3
tp858
I115408
s(g4
g4
g3
tp859
I15178
s(g3
g3
g4
tp860
I2136960
s(g3
g4
g4
tp861
I42186
s(g4
g3
g3
tp862
I233162
sg10
(g856
g11
g12
tp863
s(g4
g4
g4
tp864
I8696
s(g4
g3
g4
tp865
I5593
ssS'\xe5\x90\x8d\xe5\x8d\x95'
p866
(dp867
(g18
g19
g18
tp868
I931951
s(g19
g19
g18
tp869
I38445
s(g18
g18
g19
tp870
I2136879
s(g18
g19
g19
tp871
I42186
s(g19
g18
g18
tp872
I9187541
sg25
(g866
g26
g27
tp873
s(g19
g19
g19
tp874
I32605
s(g19
g18
g19
tp875
I73827
ssS'\xe5\xb7\xa5\xe4\xbd\x9c'
p876
(dp877
(g3
g4
g3
tp878
I115408
s(g4
g4
g3
tp879
I77724
s(g3
g3
g4
tp880
I2136960
s(g3
g4
g4
tp881
I42186
s(g4
g3
g3
tp882
I27749318
sg10
(g876
g11
g12
tp883
s(g4
g4
g4
tp884
I50078
s(g4
g3
g4
tp885
I255380
ssS'\xe4\xb9\xa0\xe8\xbf\x91\xe5\xb9\xb3'
p886
(dp887
(g3
g4
g3
tp888
I115408
s(g4
g4
g3
tp889
I11306
s(g3
g3
g4
tp890
I2136960
s(g3
g4
g4
tp891
I42186
s(g4
g3
g3
tp892
I567684
sg10
(g886
g11
g12
tp893
s(g4
g4
g4
tp894
I1466
s(g4
g3
g4
tp895
I10810
ssS'\xe6\xb3\x95\xe5\xbe\x8b'
p896
(dp897
(g18
g19
g18
tp898
I931951
s(g19
g19
g18
tp899
I124771
s(g18
g18
g19
tp900
I2137598
s(g18
g19
g19
tp901
I47202
s(g19
g18
g18
tp902
I6633090
sg25
(g896
g26
g27
tp903
s(g19
g19
g19
tp904
I38977
s(g19
g18
g19
tp905
I248916
ssS'\xe5\x85\x9a\xe7\x9a\x84\xe9\xa2\x86\xe5\xaf\xbc'
p906
(dp907
(g18
g19
g18
tp908
I931981
s(g19
g19
g18
tp909
I65355
s(g18
g18
g19
tp910
I2137598
s(g18
g19
g19
tp911
I47202
s(g19
g18
g18
tp912
I158107
sg25
(g906
g26
g27
tp913
s(g19
g19
g19
tp914
I57486
s(g19
g18
g19
tp915
I48071
ssS'\xe6\x96\x87\xe5\x8c\x96\xe4\xba\xa7\xe4\xb8\x9a'
p916
(dp917
(g83
g84
g83
tp918
I115408
s(g84
g84
g83
tp919
I7161
s(g83
g83
g84
tp920
I2136960
s(g83
g84
g84
tp921
I42186
s(g84
g83
g83
tp922
I8604241
sg90
(g916
g91
g92
tp923
s(g84
g84
g84
tp924
I18326
s(g84
g83
g84
tp925
I5493
ssS'\xe5\x8d\x81\xe4\xba\x8c\xe5\xb1\x8a'
p926
(dp927
(g83
g84
g83
tp928
I115408
s(g84
g84
g83
tp929
I13163
s(g83
g83
g84
tp930
I2136962
s(g83
g84
g84
tp931
I42208
s(g84
g83
g83
tp932
I219530
sg90
(g926
g91
g92
tp933
s(g84
g84
g84
tp934
I15589
s(g84
g83
g84
tp935
I12913
ssS'\xe5\x8d\x81\xe5\x85\xab'
p936
(dp937
(g83
g84
g83
tp938
I115409
s(g84
g84
g83
tp939
I57891
s(g83
g83
g84
tp940
I2136962
s(g83
g84
g84
tp941
I42208
s(g84
g83
g83
tp942
I856856
sg90
(g936
g91
g92
tp943
s(g84
g84
g84
tp944
I53909
s(g84
g83
g84
tp945
I71088
ssS'\xe7\xa7\x91\xe5\xad\xa6'
p946
(dp947
(g18
g19
g18
tp948
I931951
s(g19
g19
g18
tp949
I71048
s(g18
g18
g19
tp950
I2137598
s(g18
g19
g19
tp951
I47202
s(g19
g18
g18
tp952
I14737461
sg25
(g946
g26
g27
tp953
s(g19
g19
g19
tp954
I52005
s(g19
g18
g19
tp955
I321727
ssS'\xe5\xbb\xba\xe8\xae\xbe'
p956
(dp957
(g83
g84
g83
tp958
I115408
s(g84
g84
g83
tp959
I67453
s(g83
g83
g84
tp960
I2136962
s(g83
g84
g84
tp961
I42208
s(g84
g83
g83
tp962
I17503225
sg90
(g956
g91
g92
tp963
s(g84
g84
g84
tp964
I50616
s(g84
g83
g84
tp965
I319789
ssS'\xe7\xbb\x8f\xe6\xb5\x8e\xe7\xa4\xbe\xe4\xbc\x9a'
p966
(dp967
(g18
g19
g18
tp968
I115382
s(g19
g19
g18
tp969
I6558
s(g18
g18
g19
tp970
I2136879
s(g18
g19
g19
tp971
I42186
s(g19
g18
g18
tp972
I200373
sg25
(g966
g26
g27
tp973
s(g19
g19
g19
tp974
I17311
s(g19
g18
g19
tp975
I14067
ssS'\xe7\xac\xac\xe5\x8d\x81\xe5\x85\xab\xe5\xb1\x8a'
p976
(dp977
(g3
g4
g3
tp978
I115408
s(g4
g4
g3
tp979
I12594
s(g3
g3
g4
tp980
I2136960
s(g3
g4
g4
tp981
I42186
s(g4
g3
g3
tp982
I44508
sg10
(g976
g11
g12
tp983
s(g4
g4
g4
tp984
I9555
s(g4
g3
g4
tp985
I5801
ssS'\xe6\xb7\xb1\xe5\x8c\x96\xe6\x94\xb9\xe9\x9d\xa9'
p986
(dp987
(g18
g19
g18
tp988
I931981
s(g19
g19
g18
tp989
I17674
s(g18
g18
g19
tp990
I2137598
s(g18
g19
g19
tp991
I47202
s(g19
g18
g18
tp992
I196108
sg25
(g986
g26
g27
tp993
s(g19
g19
g19
tp994
I42115
s(g19
g18
g19
tp995
I19390
ssS'\xe4\xb8\x8d\xe6\x96\xad'
p996
(dp997
(g18
g19
g18
tp998
I931951
s(g19
g19
g18
tp999
I68374
s(g18
g18
g19
tp1000
I2137598
s(g18
g19
g19
tp1001
I47202
s(g19
g18
g18
tp1002
I457920
sg25
(g996
g26
g27
tp1003
s(g19
g19
g19
tp1004
I54385
s(g19
g18
g19
tp1005
I74290
ssS'\xe5\x9b\xbd\xe6\x9c\x89\xe4\xbc\x81\xe4\xb8\x9a'
p1006
(dp1007
(g3
g4
g3
tp1008
I115408
s(g4
g4
g3
tp1009
I32600
s(g3
g3
g4
tp1010
I2136960
s(g3
g4
g4
tp1011
I42186
s(g4
g3
g3
tp1012
I221816
sg10
(g1006
g11
g12
tp1013
s(g4
g4
g4
tp1014
I39450
s(g4
g3
g4
tp1015
I19576
ssS'\xe5\x85\x9a\xe5\x86\x85'
p1016
(dp1017
(g18
g19
g18
tp1018
I931951
s(g19
g19
g18
tp1019
I11846
s(g18
g18
g19
tp1020
I2137598
s(g18
g19
g19
tp1021
I47202
s(g19
g18
g18
tp1022
I61105
sg25
(g1016
g26
g27
tp1023
s(g19
g19
g19
tp1024
I29562
s(g19
g18
g19
tp1025
I4556
ssS'\xe5\xb9\xb2\xe9\x83\xa8'
p1026
(dp1027
(g18
g19
g18
tp1028
I931951
s(g19
g19
g18
tp1029
I43197
s(g18
g18
g19
tp1030
I2137598
s(g18
g19
g19
tp1031
I47202
s(g19
g18
g18
tp1032
I3377801
sg25
(g1026
g26
g27
tp1033
s(g19
g19
g19
tp1034
I49891
s(g19
g18
g19
tp1035
I53569
ssS'\xe5\x88\xb6\xe5\xba\xa6'
p1036
(dp1037
(g3
g4
g3
tp1038
I115408
s(g4
g4
g3
tp1039
I88976
s(g3
g3
g4
tp1040
I2136962
s(g3
g4
g4
tp1041
I42208
s(g4
g3
g3
tp1042
I1368575
sg10
(g1036
g11
g12
tp1043
s(g4
g4
g4
tp1044
I49594
s(g4
g3
g4
tp1045
I319751
ssS'\xe4\xbd\x9c\xe9\xa3\x8e'
p1046
(dp1047
(g83
g84
g83
tp1048
I115408
s(g84
g84
g83
tp1049
I45834
s(g83
g83
g84
tp1050
I2136962
s(g83
g84
g84
tp1051
I42208
s(g84
g83
g83
tp1052
I1876336
sg90
(g1046
g91
g92
tp1053
s(g84
g84
g84
tp1054
I50266
s(g84
g83
g84
tp1055
I41835
ssS'\xe7\xbb\x93\xe5\x90\x88'
p1056
(dp1057
(g83
g84
g83
tp1058
I115408
s(g84
g84
g83
tp1059
I61199
s(g83
g83
g84
tp1060
I2136962
s(g83
g84
g84
tp1061
I42208
s(g84
g83
g83
tp1062
I3778918
sg90
(g1056
g91
g92
tp1063
s(g84
g84
g84
tp1064
I58136
s(g84
g83
g84
tp1065
I86255
ssS'\xe5\x8d\x81\xe4\xb8\x80\xe4\xba\x94'
p1066
(dp1067
(g3
g4
g3
tp1068
I115408
s(g4
g4
g3
tp1069
I5612
s(g3
g3
g4
tp1070
I2136960
s(g3
g4
g4
tp1071
I42186
s(g4
g3
g3
tp1072
I183599
sg10
(g1066
g11
g12
tp1073
s(g4
g4
g4
tp1074
I17233
s(g4
g3
g4
tp1075
I20676
ssS'\xe5\x9b\xbd\xe5\x8a\xa1\xe9\x99\xa2'
p1076
(dp1077
(g18
g19
g18
tp1078
I931951
s(g19
g19
g18
tp1079
I54088
s(g18
g18
g19
tp1080
I2137598
s(g18
g19
g19
tp1081
I42186
s(g19
g18
g18
tp1082
I159831
sg25
(g1076
g26
g27
tp1083
s(g19
g19
g19
tp1084
I49407
s(g19
g18
g19
tp1085
I66705
ssS'\xe4\xbc\x9a\xe8\xae\xae'
p1086
(dp1087
(g18
g19
g18
tp1088
I931951
s(g19
g19
g18
tp1089
I66752
s(g18
g18
g19
tp1090
I2136879
s(g18
g19
g19
tp1091
I47202
s(g19
g18
g18
tp1092
I2709112
sg25
(g1086
g26
g27
tp1093
s(g19
g19
g19
tp1094
I46947
s(g19
g18
g19
tp1095
I159762
ssS'\xe8\xb4\xaf\xe5\xbd\xbb'
p1096
(dp1097
(g83
g84
g83
tp1098
I115408
s(g84
g84
g83
tp1099
I57007
s(g83
g83
g84
tp1100
I2136962
s(g83
g84
g84
tp1101
I42208
s(g84
g83
g83
tp1102
I193850
sg90
(g1096
g91
g92
tp1103
s(g84
g84
g84
tp1104
I55321
s(g84
g83
g84
tp1105
I58200
ssS'\xe5\x85\xa8\xe4\xbc\x9a'
p1106
(dp1107
(g3
g4
g3
tp1108
I115408
s(g4
g4
g3
tp1109
I38795
s(g3
g3
g4
tp1110
I2136960
s(g3
g4
g4
tp1111
I42186
s(g4
g3
g3
tp1112
I488707
sg10
(g1106
g11
g12
tp1113
s(g4
g4
g4
tp1114
I48507
s(g4
g3
g4
tp1115
I39335
ssS'\xe7\xab\x8b\xe6\xb3\x95'
p1116
(dp1117
(g3
g4
g3
tp1118
I115408
s(g4
g4
g3
tp1119
I61733
s(g3
g3
g4
tp1120
I2136960
s(g3
g4
g4
tp1121
I42186
s(g4
g3
g3
tp1122
I1032252
sg10
(g1116
g11
g12
tp1123
s(g4
g4
g4
tp1124
I54448
s(g4
g3
g4
tp1125
I61742
ssS'\xe6\x8e\xa8\xe8\xbf\x9b'
p1126
(dp1127
(g3
g4
g3
tp1128
I115408
s(g4
g4
g3
tp1129
I56705
s(g3
g3
g4
tp1130
I2136960
s(g3
g4
g4
tp1131
I42186
s(g4
g3
g3
tp1132
I1619651
sg10
(g1126
g11
g12
tp1133
s(g4
g4
g4
tp1134
I51544
s(g4
g3
g4
tp1135
I94440
ssS'\xe9\xa2\x86\xe5\xaf\xbc\xe4\xba\xba\xe5\x91\x98'
p1136
(dp1137
(g83
g84
g83
tp1138
I115408
s(g84
g84
g83
tp1139
I2615
s(g83
g83
g84
tp1140
I2136962
s(g83
g84
g84
tp1141
I42208
s(g84
g83
g83
tp1142
I5954
sg90
(g1136
g91
g92
tp1143
s(g84
g84
g84
tp1144
I4063
s(g84
g83
g84
tp1145
I1348
ssS'\xe5\x9b\xbd\xe5\xae\xb6'
p1146
(dp1147
(g18
g19
g18
tp1148
I931951
s(g19
g19
g18
tp1149
I177083
s(g18
g18
g19
tp1150
I2137598
s(g18
g19
g19
tp1151
I47202
s(g19
g18
g18
tp1152
I43401539
sg25
(g1146
g26
g27
tp1153
s(g19
g19
g19
tp1154
I36027
s(g19
g18
g19
tp1155
I492799
ssS'\xe4\xb8\xad\xe5\x9b\xbd\xe5\x85\xb1\xe4\xba\xa7\xe5\x85\x9a'
p1156
(dp1157
(g3
g4
g3
tp1158
I115408
s(g4
g4
g3
tp1159
I36303
s(g3
g3
g4
tp1160
I2136960
s(g3
g4
g4
tp1161
I42186
s(g4
g3
g3
tp1162
I377482
sg10
(g1156
g11
g12
tp1163
s(g4
g4
g4
tp1164
I47215
s(g4
g3
g4
tp1165
I32200
ssS'\xe6\x89\xa7\xe6\x94\xbf'
p1166
(dp1167
(g3
g4
g3
tp1168
I115408
s(g4
g4
g3
tp1169
I51531
s(g3
g3
g4
tp1170
I2136960
s(g3
g4
g4
tp1171
I42186
s(g4
g3
g3
tp1172
I1082809
sg10
(g1166
g11
g12
tp1173
s(g4
g4
g4
tp1174
I54740
s(g4
g3
g4
tp1175
I41937
ssS'\xe5\xb9\xb2\xe9\x83\xa8\xe9\x98\x9f\xe4\xbc\x8d'
p1176
(dp1177
(g18
g19
g18
tp1178
I115382
s(g19
g19
g18
tp1179
I13273
s(g18
g18
g19
tp1180
I2136879
s(g18
g19
g19
tp1181
I47202
s(g19
g18
g18
tp1182
I25100
sg25
(g1176
g26
g27
tp1183
s(g19
g19
g19
tp1184
I34648
s(g19
g18
g19
tp1185
I8506
ssS'\xe5\x9d\x9a\xe6\x8c\x81'
p1186
(dp1187
(g18
g19
g18
tp1188
I931951
s(g19
g19
g18
tp1189
I61502
s(g18
g18
g19
tp1190
I2136879
s(g18
g19
g19
tp1191
I42186
s(g19
g18
g18
tp1192
I2748037
sg25
(g1186
g26
g27
tp1193
s(g19
g19
g19
tp1194
I57048
s(g19
g18
g19
tp1195
I64213
ssS'\xe5\x85\xa8\xe5\x85\x9a\xe5\x85\xa8\xe5\x9b\xbd'
p1196
(dp1197
(g18
g19
g18
tp1198
I931951
s(g19
g19
g18
tp1199
I20595
s(g18
g18
g19
tp1200
I2137598
s(g18
g19
g19
tp1201
I47202
s(g19
g18
g18
tp1202
I10044
sg25
(g1196
g26
g27
tp1203
s(g19
g19
g19
tp1204
I42035
s(g19
g18
g19
tp1205
I20076
ssS'\xe6\x8f\x90\xe9\xab\x98'
p1206
(dp1207
(g83
g84
g83
tp1208
I115408
s(g84
g84
g83
tp1209
I66569
s(g83
g83
g84
tp1210
I2136962
s(g83
g84
g84
tp1211
I42208
s(g84
g83
g83
tp1212
I2102976
sg90
(g1206
g91
g92
tp1213
s(g84
g84
g84
tp1214
I49776
s(g84
g83
g84
tp1215
I239180
ssS'\xe5\xae\xa1\xe8\xae\xae'
p1216
(dp1217
(g3
g4
g3
tp1218
I115408
s(g4
g4
g3
tp1219
I55920
s(g3
g3
g4
tp1220
I2136960
s(g3
g4
g4
tp1221
I42186
s(g4
g3
g3
tp1222
I951164
sg10
(g1216
g11
g12
tp1223
s(g4
g4
g4
tp1224
I45610
s(g4
g3
g4
tp1225
I46923
ssS'\xe6\x94\xb9\xe8\xbf\x9b'
p1226
(dp1227
(g83
g84
g83
tp1228
I115408
s(g84
g84
g83
tp1229
I59587
s(g83
g83
g84
tp1230
I2136962
s(g83
g84
g84
tp1231
I42208
s(g84
g83
g83
tp1232
I713241
sg90
(g1226
g91
g92
tp1233
s(g84
g84
g84
tp1234
I60896
s(g84
g83
g84
tp1235
I96929
ssS'\xe5\xae\x8c\xe5\x96\x84'
p1236
(dp1237
(g18
g19
g18
tp1238
I931951
s(g19
g19
g18
tp1239
I63611
s(g18
g18
g19
tp1240
I2137598
s(g18
g19
g19
tp1241
I47202
s(g19
g18
g18
tp1242
I1228703
sg25
(g1236
g26
g27
tp1243
s(g19
g19
g19
tp1244
I55705
s(g19
g18
g19
tp1245
I72476
ssS'\xe4\xbb\xb7\xe5\x80\xbc\xe4\xbd\x93\xe7\xb3\xbb'
p1246
(dp1247
(g18
g19
g18
tp1248
I931951
s(g19
g19
g18
tp1249
I6138
s(g18
g18
g19
tp1250
I2137598
s(g18
g19
g19
tp1251
I47202
s(g19
g18
g18
tp1252
I40690
sg25
(g1246
g26
g27
tp1253
s(g19
g19
g19
tp1254
I12751
s(g19
g18
g19
tp1255
I2302
ssS'\xe5\xae\x9e\xe7\x8e\xb0'
p1256
(dp1257
(g3
g4
g3
tp1258
I115408
s(g4
g4
g3
tp1259
I64965
s(g3
g3
g4
tp1260
I2136879
s(g3
g4
g4
tp1261
I42186
s(g4
g3
g3
tp1262
I4356723
sg10
(g1256
g11
g12
tp1263
s(g4
g4
g4
tp1264
I54277
s(g4
g3
g4
tp1265
I86608
ssS'\xe5\x85\xa8\xe9\x9d\xa2'
p1266
(dp1267
(g3
g4
g3
tp1268
I115408
s(g4
g4
g3
tp1269
I59237
s(g3
g3
g4
tp1270
I2136960
s(g3
g4
g4
tp1271
I42186
s(g4
g3
g3
tp1272
I3061860
sg10
(g1266
g11
g12
tp1273
s(g4
g4
g4
tp1274
I49194
s(g4
g3
g4
tp1275
I75347
ssS'\xe5\x9b\xbd\xe6\xb0\x91\xe7\xbb\x8f\xe6\xb5\x8e'
p1276
(dp1277
(g18
g19
g18
tp1278
I931951
s(g19
g19
g18
tp1279
I16506
s(g18
g18
g19
tp1280
I2137598
s(g18
g19
g19
tp1281
I47202
s(g19
g18
g18
tp1282
I73917
sg25
(g1276
g26
g27
tp1283
s(g19
g19
g19
tp1284
I34006
s(g19
g18
g19
tp1285
I36333
ssS'\xe5\x86\x9c\xe6\x9d\x91'
p1286
(dp1287
(g18
g19
g18
tp1288
I115382
s(g19
g19
g18
tp1289
I51798
s(g18
g18
g19
tp1290
I2136879
s(g18
g19
g19
tp1291
I42186
s(g19
g18
g18
tp1292
I3744578
sg25
(g1286
g26
g27
tp1293
s(g19
g19
g19
tp1294
I53703
s(g19
g18
g19
tp1295
I300700
ssS'\xe9\xa2\x86\xe5\xaf\xbc'
p1296
(dp1297
(g83
g84
g83
tp1298
I115409
s(g84
g84
g83
tp1299
I63827
s(g83
g83
g84
tp1300
I2136962
s(g83
g84
g84
tp1301
I42208
s(g84
g83
g83
tp1302
I3264236
sg90
(g1296
g91
g92
tp1303
s(g84
g84
g84
tp1304
I50600
s(g84
g83
g84
tp1305
I87492
ssS'\xe7\xbb\x8f\xe6\xb5\x8e'
p1306
(dp1307
(g83
g84
g83
tp1308
I115408
s(g84
g84
g83
tp1309
I76589
s(g83
g83
g84
tp1310
I2136962
s(g83
g84
g84
tp1311
I42208
s(g84
g83
g83
tp1312
I12992737
sg90
(g1306
g91
g92
tp1313
s(g84
g84
g84
tp1314
I44973
s(g84
g83
g84
tp1315
I309286
ssS'\xe9\x87\x8d\xe8\xa6\x81'
p1316
(dp1317
(g83
g84
g83
tp1318
I115408
s(g84
g84
g83
tp1319
I69259
s(g83
g83
g84
tp1320
I2136962
s(g83
g84
g84
tp1321
I42208
s(g84
g83
g83
tp1322
I4525991
sg90
(g1316
g91
g92
tp1323
s(g84
g84
g84
tp1324
I52514
s(g84
g83
g84
tp1325
I174186
ssS'\xe9\xa9\xac\xe5\x85\x8b\xe6\x80\x9d\xe4\xb8\xbb\xe4\xb9\x89'
p1326
(dp1327
(g83
g84
g83
tp1328
I115408
s(g84
g84
g83
tp1329
I36649
s(g83
g83
g84
tp1330
I2136962
s(g83
g84
g84
tp1331
I42208
s(g84
g83
g83
tp1332
I166963
sg90
(g1326
g91
g92
tp1333
s(g84
g84
g84
tp1334
I64426
s(g84
g83
g84
tp1335
I29587
ssS'\xe5\x85\xac\xe5\xb9\xb3\xe6\xad\xa3\xe4\xb9\x89'
p1336
(dp1337
(g83
g84
g83
tp1338
I115408
s(g84
g84
g83
tp1339
I46287
s(g83
g83
g84
tp1340
I2136962
s(g83
g84
g84
tp1341
I42208
s(g84
g83
g83
tp1342
I257548
sg90
(g1336
g91
g92
tp1343
s(g84
g84
g84
tp1344
I61795
s(g84
g83
g84
tp1345
I40709
ssS'\xe4\xb8\xad\xe5\xa4\xae\xe6\x94\xbf\xe6\xb2\xbb\xe5\xb1\x80'
p1346
(dp1347
(g18
g19
g18
tp1348
I931951
s(g19
g19
g18
tp1349
I24086
s(g18
g18
g19
tp1350
I2137598
s(g18
g19
g19
tp1351
I47202
s(g19
g18
g18
tp1352
I28814
sg25
(g1346
g26
g27
tp1353
s(g19
g19
g19
tp1354
I45245
s(g19
g18
g19
tp1355
I31044
ssS'\xe5\x85\xac\xe6\x9c\x89\xe5\x88\xb6'
p1356
(dp1357
(g18
g19
g18
tp1358
I931951
s(g19
g19
g18
tp1359
I58994
s(g18
g18
g19
tp1360
I2137598
s(g18
g19
g19
tp1361
I47202
s(g19
g18
g18
tp1362
I390618
sg25
(g1356
g26
g27
tp1363
s(g19
g19
g19
tp1364
I47971
s(g19
g18
g19
tp1365
I56861
ssS'\xe5\x8f\x8d\xe5\xaf\xb9'
p1366
(dp1367
(g83
g84
g83
tp1368
I115408
s(g84
g84
g83
tp1369
I74982
s(g83
g83
g84
tp1370
I2136962
s(g83
g84
g84
tp1371
I42208
s(g84
g83
g83
tp1372
I2276057
sg90
(g1366
g91
g92
tp1373
s(g84
g84
g84
tp1374
I54238
s(g84
g83
g84
tp1375
I74048
ssS'\xe5\x8d\x81\xe4\xba\x94\xe5\xa4\xa7'
p1376
(dp1377
(g18
g19
g18
tp1378
I931951
s(g19
g19
g18
tp1379
I4863
s(g18
g18
g19
tp1380
I2136879
s(g18
g19
g19
tp1381
I42186
s(g19
g18
g18
tp1382
I41814
sg25
(g1376
g26
g27
tp1383
s(g19
g19
g19
tp1384
I11304
s(g19
g18
g19
tp1385
I2411
ssS'\xe4\xb9\x9d\xe5\xb1\x8a\xe5\x85\xa8\xe5\x9b\xbd\xe4\xba\xba\xe5\xa4\xa7'
p1386
(dp1387
(g3
g4
g3
tp1388
I115408
s(g4
g4
g3
tp1389
I15387
s(g3
g3
g4
tp1390
I2136960
s(g3
g4
g4
tp1391
I42186
s(g4
g3
g3
tp1392
I23118
sg10
(g1386
g11
g12
tp1393
s(g4
g4
g4
tp1394
I9104
s(g4
g3
g4
tp1395
I18671
ssS'\xe8\xbd\xac\xe5\x8f\x98'
p1396
(dp1397
(g18
g19
g18
tp1398
I931951
s(g19
g19
g18
tp1399
I73451
s(g18
g18
g19
tp1400
I2136879
s(g18
g19
g19
tp1401
I47202
s(g19
g18
g18
tp1402
I1224896
sg25
(g1396
g26
g27
tp1403
s(g19
g19
g19
tp1404
I61044
s(g19
g18
g19
tp1405
I82264
ssS'\xe6\x8e\xa8\xe5\x8a\xa8'
p1406
(dp1407
(g18
g19
g18
tp1408
I931951
s(g19
g19
g18
tp1409
I76286
s(g18
g18
g19
tp1410
I2137598
s(g18
g19
g19
tp1411
I47202
s(g19
g18
g18
tp1412
I1798926
sg25
(g1406
g26
g27
tp1413
s(g19
g19
g19
tp1414
I58043
s(g19
g18
g19
tp1415
I100651
ssS'\xe6\xb3\x95\xe6\xb2\xbb'
p1416
(dp1417
(g3
g4
g3
tp1418
I115408
s(g4
g4
g3
tp1419
I72574
s(g3
g3
g4
tp1420
I2136960
s(g3
g4
g4
tp1421
I42186
s(g4
g3
g3
tp1422
I1549903
sg10
(g1416
g11
g12
tp1423
s(g4
g4
g4
tp1424
I49580
s(g4
g3
g4
tp1425
I65060
ssS'\xe5\x8f\x91\xe5\xb1\x95'
p1426
(dp1427
(g3
g4
g3
tp1428
I115408
s(g4
g4
g3
tp1429
I84437
s(g3
g3
g4
tp1430
I2136960
s(g3
g4
g4
tp1431
I42186
s(g4
g3
g3
tp1432
I9513648
sg10
(g1426
g11
g12
tp1433
s(g4
g4
g4
tp1434
I45656
s(g4
g3
g4
tp1435
I233931
ssS'\xe6\x8a\x97\xe7\x81\xbe\xe6\x95\x91\xe7\x81\xbe'
p1436
(dp1437
(g18
g19
g18
tp1438
I931951
s(g19
g19
g18
tp1439
I26898
s(g18
g18
g19
tp1440
I2137598
s(g18
g19
g19
tp1441
I47202
s(g19
g18
g18
tp1442
I97829
sg25
(g1436
g26
g27
tp1443
s(g19
g19
g19
tp1444
I6117
s(g19
g18
g19
tp1445
I36036
ss.