(dp0
S'\xe4\xbe\x9d\xe6\xb3\x95'
p1
(dp2
(S'?'
p3
S'+'
p4
g3
tp5
I55394794
s(g4
g4
g3
tp6
I97634
s(g3
g3
g4
tp7
I811926
s(g3
g4
g4
tp8
I97369
s(g4
g3
g3
tp9
I327110
sS'words'
p10
(g1
S'\xe6\x95\x99\xe8\x82\xb2'
p11
S'\xe5\xa4\x96\xe4\xba\xa4'
p12
tp13
s(g4
g4
g4
tp14
I42795
s(g4
g3
g4
tp15
I49294
ssS'\xe8\xae\xb8\xe8\xbf\x90\xe9\xb8\xbf'
p16
(dp17
(g3
g4
g3
tp18
I55394787
s(g4
g4
g3
tp19
I8248
s(g3
g3
g4
tp20
I811939
s(g3
g4
g4
tp21
I97369
s(g4
g3
g3
tp22
I4539
sg10
(g16
g11
g12
tp23
s(g4
g4
g4
tp24
I2383
s(g4
g3
g4
tp25
I1412
ssS'\xe7\xbb\x8f\xe8\x90\xa5\xe7\xae\xa1\xe7\x90\x86\xe8\x80\x85'
p26
(dp27
(S'?'
p28
S'+'
p29
g28
tp30
I55394756
s(g29
g29
g28
tp31
I14219
s(g28
g28
g29
tp32
I678335
s(g28
g29
g29
tp33
I101453
s(g29
g28
g28
tp34
I110292
sS'words'
p35
(g26
S'\xe6\x95\x99\xe8\x82\xb2'
p36
S'\xe5\xa4\x96\xe4\xba\xa4'
p37
tp38
s(g29
g29
g29
tp39
I14440
s(g29
g28
g29
tp40
I6676
ssS'\xe5\x85\xa8\xe5\x85\x9a'
p41
(dp42
(g3
g4
g3
tp43
I55394794
s(g4
g4
g3
tp44
I72396
s(g3
g3
g4
tp45
I811939
s(g3
g4
g4
tp46
I97369
s(g4
g3
g3
tp47
I74619
sg10
(g41
g11
g12
tp48
s(g4
g4
g4
tp49
I51431
s(g4
g3
g4
tp50
I58297
ssS'\xe7\xac\xac\xe5\x8d\x81\xe5\x85\xad\xe6\xac\xa1'
p51
(dp52
(g3
g4
g3
tp53
I55394787
s(g4
g4
g3
tp54
I3316
s(g3
g3
g4
tp55
I811926
s(g3
g4
g4
tp56
I97369
s(g4
g3
g3
tp57
I10288
sg10
(g51
g11
g12
tp58
s(g4
g4
g4
tp59
I4104
s(g4
g3
g4
tp60
I4782
ssS'\xe5\x8a\xa0\xe5\xbf\xab'
p61
(dp62
(g28
g29
g28
tp63
I55394756
s(g29
g29
g28
tp64
I2562403
s(g28
g28
g29
tp65
I678335
s(g28
g29
g29
tp66
I101453
s(g29
g28
g28
tp67
I2196091
sg35
(g61
g36
g37
tp68
s(g29
g29
g29
tp69
I47496
s(g29
g28
g29
tp70
I69173
ssS'\xe5\xb0\xb1\xe4\xb8\x9a'
p71
(dp72
(g3
g4
g3
tp73
I55394793
s(g4
g4
g3
tp74
I1058023
s(g3
g3
g4
tp75
I811926
s(g3
g4
g4
tp76
I97389
s(g4
g3
g3
tp77
I3179750
sg10
(g71
g11
g12
tp78
s(g4
g4
g4
tp79
I45411
s(g4
g3
g4
tp80
I54027
ssS'\xe5\x85\xa8\xe5\x9b\xbd\xe4\xba\xba\xe5\xa4\xa7'
p81
(dp82
(S'?'
p83
S'+'
p84
g83
tp85
I55394783
s(g84
g84
g83
tp86
I42591
s(g83
g83
g84
tp87
I811947
s(g83
g84
g84
tp88
I97339
s(g84
g83
g83
tp89
I525541
sS'words'
p90
(g81
S'\xe6\x95\x99\xe8\x82\xb2'
p91
S'\xe5\xa4\x96\xe4\xba\xa4'
p92
tp93
s(g84
g84
g84
tp94
I69927
s(g84
g83
g84
tp95
I40930
ssS'\xe7\x9d\x80\xe5\x8a\x9b'
p96
(dp97
(g3
g4
g3
tp98
I55394794
s(g4
g4
g3
tp99
I90179
s(g3
g3
g4
tp100
I811939
s(g3
g4
g4
tp101
I97389
s(g4
g3
g3
tp102
I302805
sg10
(g96
g11
g12
tp103
s(g4
g4
g4
tp104
I23844
s(g4
g3
g4
tp105
I40192
ssS'\xe6\x96\xb9\xe5\xbc\x8f'
p106
(dp107
(g3
g4
g3
tp108
I55394794
s(g4
g4
g3
tp109
I1144958
s(g3
g3
g4
tp110
I811939
s(g3
g4
g4
tp111
I97389
s(g4
g3
g3
tp112
I3453705
sg10
(g106
g11
g12
tp113
s(g4
g4
g4
tp114
I70819
s(g4
g3
g4
tp115
I84435
ssS'\xe6\x94\xb9\xe9\x9d\xa9'
p116
(dp117
(g3
g4
g3
tp118
I55394787
s(g4
g4
g3
tp119
I1222040
s(g3
g3
g4
tp120
I811926
s(g3
g4
g4
tp121
I97369
s(g4
g3
g3
tp122
I4408608
sg10
(g116
g11
g12
tp123
s(g4
g4
g4
tp124
I61050
s(g4
g3
g4
tp125
I70627
ssS'\xe7\xbe\xa4\xe4\xbc\x97'
p126
(dp127
(g3
g4
g3
tp128
I55394785
s(g4
g4
g3
tp129
I648065
s(g3
g3
g4
tp130
I811939
s(g3
g4
g4
tp131
I97369
s(g4
g3
g3
tp132
I385967
sg10
(g126
g11
g12
tp133
s(g4
g4
g4
tp134
I57670
s(g4
g3
g4
tp135
I42859
ssS'\xe4\xb8\x80\xe6\xac\xa1'
p136
(dp137
(g3
g4
g3
tp138
I55394794
s(g4
g4
g3
tp139
I494693
s(g3
g3
g4
tp140
I811926
s(g3
g4
g4
tp141
I97389
s(g4
g3
g3
tp142
I5657518
sg10
(g136
g11
g12
tp143
s(g4
g4
g4
tp144
I69299
s(g4
g3
g4
tp145
I71265
ssS'\xe7\xb9\x81\xe8\x8d\xa3'
p146
(dp147
(g3
g4
g3
tp148
I55394787
s(g4
g4
g3
tp149
I79357
s(g3
g3
g4
tp150
I811926
s(g3
g4
g4
tp151
I97369
s(g4
g3
g3
tp152
I158105
sg10
(g146
g11
g12
tp153
s(g4
g4
g4
tp154
I53374
s(g4
g3
g4
tp155
I65677
ssS'\xe5\x9f\x8e\xe4\xb9\xa1'
p156
(dp157
(g3
g4
g3
tp158
I55394794
s(g4
g4
g3
tp159
I155221
s(g3
g3
g4
tp160
I811939
s(g3
g4
g4
tp161
I97389
s(g4
g3
g3
tp162
I665395
sg10
(g156
g11
g12
tp163
s(g4
g4
g4
tp164
I43763
s(g4
g3
g4
tp165
I39230
ssS'\xe6\x80\x9d\xe6\x83\xb3'
p166
(dp167
(g3
g4
g3
tp168
I55394787
s(g4
g4
g3
tp169
I888807
s(g3
g3
g4
tp170
I811926
s(g3
g4
g4
tp171
I97369
s(g4
g3
g3
tp172
I2624158
sg10
(g166
g11
g12
tp173
s(g4
g4
g4
tp174
I57184
s(g4
g3
g4
tp175
I81870
ssS'\xe7\x8e\xb0\xe4\xbb\xa3\xe5\x8c\x96'
p176
(dp177
(g3
g4
g3
tp178
I55394787
s(g4
g4
g3
tp179
I849556
s(g3
g3
g4
tp180
I811926
s(g3
g4
g4
tp181
I97369
s(g4
g3
g3
tp182
I4456223
sg10
(g176
g11
g12
tp183
s(g4
g4
g4
tp184
I67527
s(g4
g3
g4
tp185
I75104
ssS'\xe6\x9c\xba\xe5\x88\xb6'
p186
(dp187
(g3
g4
g3
tp188
I55394794
s(g4
g4
g3
tp189
I807180
s(g3
g3
g4
tp190
I811939
s(g3
g4
g4
tp191
I97369
s(g4
g3
g3
tp192
I2587169
sg10
(g186
g11
g12
tp193
s(g4
g4
g4
tp194
I50499
s(g4
g3
g4
tp195
I68185
ssS'\xe4\xb8\xad\xe5\xa4\xae\xe5\xa7\x94\xe5\x91\x98\xe4\xbc\x9a'
p196
(dp197
(g83
g84
g83
tp198
I55394783
s(g84
g84
g83
tp199
I4408
s(g83
g83
g84
tp200
I811947
s(g83
g84
g84
tp201
I97339
s(g84
g83
g83
tp202
I24927
sg90
(g196
g91
g92
tp203
s(g84
g84
g84
tp204
I14496
s(g84
g83
g84
tp205
I9467
ssS'\xe5\x92\x8c\xe8\xb0\x90\xe7\xa4\xbe\xe4\xbc\x9a'
p206
(dp207
(g83
g84
g83
tp208
I55394783
s(g84
g84
g83
tp209
I60715
s(g83
g83
g84
tp210
I811947
s(g83
g84
g84
tp211
I97339
s(g84
g83
g83
tp212
I123025
sg90
(g206
g91
g92
tp213
s(g84
g84
g84
tp214
I44218
s(g84
g83
g84
tp215
I10510
ssS'\xe4\xbd\x93\xe7\xb3\xbb'
p216
(dp217
(g3
g4
g3
tp218
I55394787
s(g4
g4
g3
tp219
I28881552
s(g3
g3
g4
tp220
I811939
s(g3
g4
g4
tp221
I97369
s(g4
g3
g3
tp222
I2881177
sg10
(g216
g11
g12
tp223
s(g4
g4
g4
tp224
I59170
s(g4
g3
g4
tp225
I72497
ssS'\xe5\x86\x9b\xe9\x98\x9f'
p226
(dp227
(S'?'
p228
S'+'
p229
g228
tp230
I55394785
s(g229
g229
g228
tp231
I131725
s(g228
g228
g229
tp232
I812104
s(g228
g229
g229
tp233
I97369
s(g229
g228
g228
tp234
I117207
sS'words'
p235
(g226
S'\xe6\x95\x99\xe8\x82\xb2'
p236
S'\xe5\xa4\x96\xe4\xba\xa4'
p237
tp238
s(g229
g229
g229
tp239
I94458
s(g229
g228
g229
tp240
I58061
ssS'\xe6\xb7\xb1\xe5\x8c\x96'
p241
(dp242
(g3
g4
g3
tp243
I55394794
s(g4
g4
g3
tp244
I216964
s(g3
g3
g4
tp245
I811926
s(g3
g4
g4
tp246
I97369
s(g4
g3
g3
tp247
I1091757
sg10
(g241
g11
g12
tp248
s(g4
g4
g4
tp249
I39304
s(g4
g3
g4
tp250
I52086
ssS'\xe5\xb8\x82\xe5\x9c\xba'
p251
(dp252
(g3
g4
g3
tp253
I55394787
s(g4
g4
g3
tp254
I666732
s(g3
g3
g4
tp255
I811926
s(g3
g4
g4
tp256
I97369
s(g4
g3
g3
tp257
I15551904
sg10
(g251
g11
g12
tp258
s(g4
g4
g4
tp259
I58134
s(g4
g3
g4
tp260
I64779
ssS'\xe5\x8d\x81\xe5\x85\xad\xe5\xa4\xa7'
p261
(dp262
(S'?'
p263
S'+'
p264
g263
tp265
I55394785
s(g264
g264
g263
tp266
I62987
s(g263
g263
g264
tp267
I812104
s(g263
g264
g264
tp268
I97369
s(g264
g263
g263
tp269
I35845
sS'words'
p270
(g261
S'\xe6\x95\x99\xe8\x82\xb2'
p271
S'\xe5\xa4\x96\xe4\xba\xa4'
p272
tp273
s(g264
g264
g264
tp274
I52063
s(g264
g263
g264
tp275
I47655
ssS'\xe4\xbf\x83\xe8\xbf\x9b'
p276
(dp277
(g3
g4
g3
tp278
I55394794
s(g4
g4
g3
tp279
I963787
s(g3
g3
g4
tp280
I811926
s(g3
g4
g4
tp281
I97389
s(g4
g3
g3
tp282
I1656122
sg10
(g276
g11
g12
tp283
s(g4
g4
g4
tp284
I55578
s(g4
g3
g4
tp285
I102266
ssS'\xe6\x94\xbf\xe6\xb2\xbb\xe6\x96\x87\xe6\x98\x8e'
p286
(dp287
(g3
g4
g3
tp288
I55394787
s(g4
g4
g3
tp289
I31624
s(g3
g3
g4
tp290
I811926
s(g3
g4
g4
tp291
I97369
s(g4
g3
g3
tp292
I23859
sg10
(g286
g11
g12
tp293
s(g4
g4
g4
tp294
I16361
s(g4
g3
g4
tp295
I2802
ssS'\xe5\x8d\x8f\xe8\xb0\x83'
p296
(dp297
(g3
g4
g3
tp298
I55394793
s(g4
g4
g3
tp299
I128182
s(g3
g3
g4
tp300
I811926
s(g3
g4
g4
tp301
I97369
s(g4
g3
g3
tp302
I260506
sg10
(g296
g11
g12
tp303
s(g4
g4
g4
tp304
I56839
s(g4
g3
g4
tp305
I66215
ssS'\xe5\x85\x9a\xe7\x9a\x84\xe5\xbb\xba\xe8\xae\xbe'
p306
(dp307
(g3
g4
g3
tp308
I55394787
s(g4
g4
g3
tp309
I195483
s(g3
g3
g4
tp310
I811926
s(g3
g4
g4
tp311
I97369
s(g4
g3
g3
tp312
I264106
sg10
(g306
g11
g12
tp313
s(g4
g4
g4
tp314
I76982
s(g4
g3
g4
tp315
I60340
ssS'\xe6\x95\x99\xe8\x82\xb2'
p316
(dp317
(g3
g4
g3
tp318
I55394787
s(g4
g4
g3
tp319
I22553563
s(g3
g3
g4
tp320
I811926
s(g3
g4
g4
tp321
I97369
s(g4
g3
g3
tp322
I55394787
sg10
(g316
g11
g12
tp323
s(g4
g4
g4
tp324
I71908
s(g4
g3
g4
tp325
I97369
ssS'\xe5\x8d\x81\xe4\xba\x8c\xe5\xb1\x8a'
p326
(dp327
(g83
g84
g83
tp328
I55394783
s(g84
g84
g83
tp329
I25947
s(g83
g83
g84
tp330
I811947
s(g83
g84
g84
tp331
I97339
s(g84
g83
g83
tp332
I243676
sg90
(g326
g91
g92
tp333
s(g84
g84
g84
tp334
I23943
s(g84
g83
g84
tp335
I11525
ssS'\xe7\xbb\x8f\xe6\xb5\x8e\xe4\xbd\x93\xe5\x88\xb6'
p336
(dp337
(S'?'
p338
S'+'
p339
g338
tp340
I55394756
s(g339
g339
g338
tp341
I76073
s(g338
g338
g339
tp342
I1097462
s(g338
g339
g339
tp343
I101453
s(g339
g338
g338
tp344
I35979
sS'words'
p345
(g336
S'\xe6\x95\x99\xe8\x82\xb2'
p346
S'\xe5\xa4\x96\xe4\xba\xa4'
p347
tp348
s(g339
g339
g339
tp349
I33975
s(g339
g338
g339
tp350
I15263
ssS'\xe6\x88\x98\xe7\x95\xa5'
p351
(dp352
(g3
g4
g3
tp353
I55394794
s(g4
g4
g3
tp354
I700994
s(g3
g3
g4
tp355
I811926
s(g3
g4
g4
tp356
I97369
s(g4
g3
g3
tp357
I3338431
sg10
(g351
g11
g12
tp358
s(g4
g4
g4
tp359
I70282
s(g4
g3
g4
tp360
I120957
ssS'\xe7\x94\x9f\xe4\xba\xa7\xe5\x8a\x9b'
p361
(dp362
(g3
g4
g3
tp363
I55394794
s(g4
g4
g3
tp364
I72119
s(g3
g3
g4
tp365
I811939
s(g3
g4
g4
tp366
I97389
s(g4
g3
g3
tp367
I85628
sg10
(g361
g11
g12
tp368
s(g4
g4
g4
tp369
I62937
s(g4
g3
g4
tp370
I57362
ssS'\xe4\xbc\x9f\xe5\xa4\xa7\xe6\x97\x97\xe5\xb8\x9c'
p371
(dp372
(g338
g339
g338
tp373
I55394756
s(g339
g339
g338
tp374
I28013
s(g338
g338
g339
tp375
I1097462
s(g338
g339
g339
tp376
I101453
s(g339
g338
g338
tp377
I8020
sg345
(g371
g346
g347
tp378
s(g339
g339
g339
tp379
I46251
s(g339
g338
g339
tp380
I17185
ssS'\xe5\x8f\xb8\xe6\xb3\x95'
p381
(dp382
(g3
g4
g3
tp383
I55394794
s(g4
g4
g3
tp384
I274404
s(g3
g3
g4
tp385
I811939
s(g3
g4
g4
tp386
I97369
s(g4
g3
g3
tp387
I958117
sg10
(g381
g11
g12
tp388
s(g4
g4
g4
tp389
I40556
s(g4
g3
g4
tp390
I59240
ssS'\xe5\xa2\x9e\xe5\xbc\xba'
p391
(dp392
(g3
g4
g3
tp393
I55394787
s(g4
g4
g3
tp394
I1461456
s(g3
g3
g4
tp395
I811939
s(g3
g4
g4
tp396
I97389
s(g4
g3
g3
tp397
I5161999
sg10
(g391
g11
g12
tp398
s(g4
g4
g4
tp399
I64930
s(g4
g3
g4
tp400
I93969
ssS'\xe5\x88\x9b\xe6\x96\xb0'
p401
(dp402
(g3
g4
g3
tp403
I55394787
s(g4
g4
g3
tp404
I526405
s(g3
g3
g4
tp405
I811926
s(g3
g4
g4
tp406
I97369
s(g4
g3
g3
tp407
I2835385
sg10
(g401
g11
g12
tp408
s(g4
g4
g4
tp409
I51512
s(g4
g3
g4
tp410
I58222
ssS'\xe5\x90\x8c\xe5\xbf\x97'
p411
(dp412
(g3
g4
g3
tp413
I55394787
s(g4
g4
g3
tp414
I134398
s(g3
g3
g4
tp415
I811926
s(g3
g4
g4
tp416
I97369
s(g4
g3
g3
tp417
I811465
sg10
(g411
g11
g12
tp418
s(g4
g4
g4
tp419
I54557
s(g4
g3
g4
tp420
I61568
ssS'\xe8\x81\x8c\xe8\x83\xbd'
p421
(dp422
(g3
g4
g3
tp423
I55394787
s(g4
g4
g3
tp424
I121738
s(g3
g3
g4
tp425
I811939
s(g3
g4
g4
tp426
I97369
s(g4
g3
g3
tp427
I722270
sg10
(g421
g11
g12
tp428
s(g4
g4
g4
tp429
I52548
s(g4
g3
g4
tp430
I55146
ssS'\xe5\x86\x9c\xe6\xb0\x91'
p431
(dp432
(g3
g4
g3
tp433
I55394787
s(g4
g4
g3
tp434
I268282
s(g3
g3
g4
tp435
I811939
s(g3
g4
g4
tp436
I97389
s(g4
g3
g3
tp437
I909506
sg10
(g431
g11
g12
tp438
s(g4
g4
g4
tp439
I45383
s(g4
g3
g4
tp440
I60669
ssS'\xe5\x85\xa8\xe5\x9b\xbd\xe6\x94\xbf\xe5\x8d\x8f'
p441
(dp442
(g3
g4
g3
tp443
I55394794
s(g4
g4
g3
tp444
I43371
s(g3
g3
g4
tp445
I811939
s(g3
g4
g4
tp446
I97369
s(g4
g3
g3
tp447
I57681
sg10
(g441
g11
g12
tp448
s(g4
g4
g4
tp449
I57982
s(g4
g3
g4
tp450
I32010
ssS'\xe5\x8d\x81\xe5\xb1\x8a'
p451
(dp452
(g3
g4
g3
tp453
I55394785
s(g4
g4
g3
tp454
I55845
s(g3
g3
g4
tp455
I811926
s(g3
g4
g4
tp456
I97369
s(g4
g3
g3
tp457
I275653
sg10
(g451
g11
g12
tp458
s(g4
g4
g4
tp459
I13873
s(g4
g3
g4
tp460
I9832
ssS'\xe5\x8a\xa0\xe5\xbc\xba'
p461
(dp462
(g3
g4
g3
tp463
I55394787
s(g4
g4
g3
tp464
I9351161
s(g3
g3
g4
tp465
I811926
s(g3
g4
g4
tp466
I97389
s(g4
g3
g3
tp467
I4883467
sg10
(g461
g11
g12
tp468
s(g4
g4
g4
tp469
I64251
s(g4
g3
g4
tp470
I89387
ssS'\xe9\x82\x93\xe5\xb0\x8f\xe5\xb9\xb3\xe7\x90\x86\xe8\xae\xba'
p471
(dp472
(g3
g4
g3
tp473
I55394787
s(g4
g4
g3
tp474
I66935
s(g3
g3
g4
tp475
I811926
s(g3
g4
g4
tp476
I97369
s(g4
g3
g3
tp477
I453664
sg10
(g471
g11
g12
tp478
s(g4
g4
g4
tp479
I57979
s(g4
g3
g4
tp480
I26490
ssS'\xe4\xb8\x89\xe4\xb8\xaa\xe4\xbb\xa3\xe8\xa1\xa8'
p481
(dp482
(g3
g4
g3
tp483
I55394794
s(g4
g4
g3
tp484
I36356
s(g3
g3
g4
tp485
I811939
s(g3
g4
g4
tp486
I97389
s(g4
g3
g3
tp487
I19191
sg10
(g481
g11
g12
tp488
s(g4
g4
g4
tp489
I46934
s(g4
g3
g4
tp490
I6691
ssS'\xe5\x8f\x91\xe5\xb1\x95\xe8\xa7\x82'
p491
(dp492
(g263
g264
g263
tp493
I55394785
s(g264
g264
g263
tp494
I157753
s(g263
g263
g264
tp495
I812104
s(g263
g264
g264
tp496
I97369
s(g264
g263
g263
tp497
I105385
sg270
(g491
g271
g272
tp498
s(g264
g264
g264
tp499
I47937
s(g264
g263
g264
tp500
I46548
ssS'\xe4\xb9\x9d\xe5\xb1\x8a'
p501
(dp502
(g3
g4
g3
tp503
I55394787
s(g4
g4
g3
tp504
I63537
s(g3
g3
g4
tp505
I811926
s(g3
g4
g4
tp506
I97369
s(g4
g3
g3
tp507
I73375
sg10
(g501
g11
g12
tp508
s(g4
g4
g4
tp509
I14931
s(g4
g3
g4
tp510
I11067
ssS'\xe5\x8d\x81\xe4\xb8\x80\xe5\xb1\x8a'
p511
(dp512
(g28
g29
g28
tp513
I55394756
s(g29
g29
g28
tp514
I28468
s(g28
g28
g29
tp515
I678335
s(g28
g29
g29
tp516
I101453
s(g29
g28
g28
tp517
I294954
sg35
(g511
g36
g37
tp518
s(g29
g29
g29
tp519
I50431
s(g29
g28
g29
tp520
I28788
ssS'\xe5\xa7\x8b\xe7\xbb\x88'
p521
(dp522
(g263
g264
g263
tp523
I55394785
s(g264
g264
g263
tp524
I141961
s(g263
g263
g264
tp525
I812104
s(g263
g264
g264
tp526
I97369
s(g264
g263
g263
tp527
I1445126
sg270
(g521
g271
g272
tp528
s(g264
g264
g264
tp529
I21078
s(g264
g263
g264
tp530
I76875
ssS'\xe7\xbb\x9f\xe7\xad\xb9'
p531
(dp532
(g3
g4
g3
tp533
I55394794
s(g4
g4
g3
tp534
I86911
s(g3
g3
g4
tp535
I811939
s(g3
g4
g4
tp536
I97389
s(g4
g3
g3
tp537
I107034
sg10
(g531
g11
g12
tp538
s(g4
g4
g4
tp539
I47773
s(g4
g3
g4
tp540
I44263
ssS'\xe7\xac\xac\xe5\x8d\x81\xe5\x85\xad\xe5\xb1\x8a'
p541
(dp542
(g263
g264
g263
tp543
I55394785
s(g264
g264
g263
tp544
I35489
s(g263
g263
g264
tp545
I811926
s(g263
g264
g264
tp546
I97369
s(g264
g263
g263
tp547
I85942
sg270
(g541
g271
g272
tp548
s(g264
g264
g264
tp549
I18856
s(g264
g263
g264
tp550
I26725
ssS'\xe5\xbf\x85\xe9\xa1\xbb'
p551
(dp552
(g263
g264
g263
tp553
I55394787
s(g264
g264
g263
tp554
I387344
s(g263
g263
g264
tp555
I811926
s(g263
g264
g264
tp556
I97369
s(g264
g263
g263
tp557
I1605497
sg270
(g551
g271
g272
tp558
s(g264
g264
g264
tp559
I74212
s(g264
g263
g264
tp560
I85071
ssS'\xe8\xa1\x8c\xe6\x94\xbf'
p561
(dp562
(g3
g4
g3
tp563
I55394787
s(g4
g4
g3
tp564
I404766
s(g3
g3
g4
tp565
I811926
s(g3
g4
g4
tp566
I97369
s(g4
g3
g3
tp567
I2014676
sg10
(g561
g11
g12
tp568
s(g4
g4
g4
tp569
I53680
s(g4
g3
g4
tp570
I60812
ssS'\xe5\x86\x9c\xe4\xb8\x9a'
p571
(dp572
(g3
g4
g3
tp573
I55394794
s(g4
g4
g3
tp574
I4683804
s(g3
g3
g4
tp575
I811939
s(g3
g4
g4
tp576
I97369
s(g4
g3
g3
tp577
I5642543
sg10
(g571
g11
g12
tp578
s(g4
g4
g4
tp579
I57278
s(g4
g3
g4
tp580
I62425
ssS'\xe6\x9e\x84\xe5\xbb\xba'
p581
(dp582
(g3
g4
g3
tp583
I55394794
s(g4
g4
g3
tp584
I4797803
s(g3
g3
g4
tp585
I811926
s(g3
g4
g4
tp586
I97369
s(g4
g3
g3
tp587
I1204807
sg10
(g581
g11
g12
tp588
s(g4
g4
g4
tp589
I50726
s(g4
g3
g4
tp590
I133984
ssS'\xe4\xbd\x9c\xe9\xa3\x8e'
p591
(dp592
(g83
g84
g83
tp593
I55394783
s(g84
g84
g83
tp594
I250196
s(g83
g83
g84
tp595
I811947
s(g83
g84
g84
tp596
I97339
s(g84
g83
g83
tp597
I1876467
sg90
(g591
g91
g92
tp598
s(g84
g84
g84
tp599
I40684
s(g84
g83
g84
tp600
I52240
ssS'\xe4\xbc\x81\xe4\xb8\x9a'
p601
(dp602
(g83
g84
g83
tp603
I55394783
s(g84
g84
g83
tp604
I1359374
s(g83
g83
g84
tp605
I811947
s(g83
g84
g84
tp606
I97339
s(g84
g83
g83
tp607
I29247552
sg90
(g601
g91
g92
tp608
s(g84
g84
g84
tp609
I59772
s(g84
g83
g84
tp610
I71595
ssS'\xe5\x86\x9c\xe6\x9d\x91'
p611
(dp612
(g3
g4
g3
tp613
I55394787
s(g4
g4
g3
tp614
I671167
s(g3
g3
g4
tp615
I811926
s(g3
g4
g4
tp616
I97369
s(g4
g3
g3
tp617
I7220270
sg10
(g611
g11
g12
tp618
s(g4
g4
g4
tp619
I44923
s(g4
g3
g4
tp620
I53679
ssS'\xe4\xba\x8b\xe4\xb8\x9a'
p621
(dp622
(g83
g84
g83
tp623
I55394783
s(g84
g84
g83
tp624
I1332855
s(g83
g83
g84
tp625
I811947
s(g83
g84
g84
tp626
I97339
s(g84
g83
g83
tp627
I12400823
sg90
(g621
g91
g92
tp628
s(g84
g84
g84
tp629
I49412
s(g84
g83
g84
tp630
I128394
ssS'\xe7\x89\xb9\xe8\x89\xb2'
p631
(dp632
(g263
g264
g263
tp633
I55394785
s(g264
g264
g263
tp634
I3353654
s(g263
g263
g264
tp635
I812104
s(g263
g264
g264
tp636
I97369
s(g264
g263
g263
tp637
I7437757
sg270
(g631
g271
g272
tp638
s(g264
g264
g264
tp639
I60428
s(g264
g263
g264
tp640
I68038
ssS'\xe4\xba\xba\xe6\xb0\x91'
p641
(dp642
(g3
g4
g3
tp643
I55394794
s(g4
g4
g3
tp644
I910273
s(g3
g3
g4
tp645
I811955
s(g3
g4
g4
tp646
I97389
s(g4
g3
g3
tp647
I15025128
sg10
(g641
g11
g12
tp648
s(g4
g4
g4
tp649
I83506
s(g4
g3
g4
tp650
I339282
ssS'\xe7\xb2\xbe\xe7\xa5\x9e'
p651
(dp652
(g83
g84
g83
tp653
I55394783
s(g84
g84
g83
tp654
I598838
s(g83
g83
g84
tp655
I811947
s(g83
g84
g84
tp656
I97339
s(g84
g83
g83
tp657
I1787095
sg90
(g651
g91
g92
tp658
s(g84
g84
g84
tp659
I57823
s(g84
g83
g84
tp660
I57784
ssS'\xe5\x90\x8d\xe5\x8d\x95'
p661
(dp662
(g3
g4
g3
tp663
I55394787
s(g4
g4
g3
tp664
I873498
s(g3
g3
g4
tp665
I811926
s(g3
g4
g4
tp666
I97369
s(g4
g3
g3
tp667
I9292364
sg10
(g661
g11
g12
tp668
s(g4
g4
g4
tp669
I26860
s(g4
g3
g4
tp670
I62781
ssS'\xe5\x8d\x81\xe4\xb8\x83'
p671
(dp672
(g3
g4
g3
tp673
I55394785
s(g4
g4
g3
tp674
I163247
s(g3
g3
g4
tp675
I811926
s(g3
g4
g4
tp676
I97369
s(g4
g3
g3
tp677
I524580
sg10
(g671
g11
g12
tp678
s(g4
g4
g4
tp679
I51667
s(g4
g3
g4
tp680
I86603
ssS'\xe4\xbd\x93\xe5\x88\xb6'
p681
(dp682
(g28
g29
g28
tp683
I55394756
s(g29
g29
g28
tp684
I1108118
s(g28
g28
g29
tp685
I678335
s(g28
g29
g29
tp686
I101453
s(g29
g28
g28
tp687
I2772013
sg35
(g681
g36
g37
tp688
s(g29
g29
g29
tp689
I57068
s(g29
g28
g29
tp690
I69833
ssS'\xe5\x92\x8c\xe8\xb0\x90'
p691
(dp692
(g3
g4
g3
tp693
I55394787
s(g4
g4
g3
tp694
I1285069
s(g3
g3
g4
tp695
I811926
s(g3
g4
g4
tp696
I97369
s(g4
g3
g3
tp697
I676071
sg10
(g691
g11
g12
tp698
s(g4
g4
g4
tp699
I57815
s(g4
g3
g4
tp700
I70425
ssS'\xe6\xb0\x91\xe4\xb8\xbb'
p701
(dp702
(g3
g4
g3
tp703
I55394787
s(g4
g4
g3
tp704
I204411
s(g3
g3
g4
tp705
I811926
s(g3
g4
g4
tp706
I97369
s(g4
g3
g3
tp707
I768357
sg10
(g701
g11
g12
tp708
s(g4
g4
g4
tp709
I68392
s(g4
g3
g4
tp710
I65627
ssS'\xe6\x94\xbf\xe6\xb2\xbb'
p711
(dp712
(g338
g339
g338
tp713
I55394756
s(g339
g339
g338
tp714
I2673631
s(g338
g338
g339
tp715
I678335
s(g338
g339
g339
tp716
I101453
s(g339
g338
g338
tp717
I9631238
sg345
(g711
g346
g347
tp718
s(g339
g339
g339
tp719
I75179
s(g339
g338
g339
tp720
I231820
ssS'\xe6\x96\x87\xe5\x8c\x96'
p721
(dp722
(g3
g4
g3
tp723
I55394794
s(g4
g4
g3
tp724
I918082
s(g3
g3
g4
tp725
I811939
s(g3
g4
g4
tp726
I97389
s(g4
g3
g3
tp727
I7382610
sg10
(g721
g11
g12
tp728
s(g4
g4
g4
tp729
I59370
s(g4
g3
g4
tp730
I98207
ssS'\xe4\xbf\x9d\xe6\x8c\x81'
p731
(dp732
(g3
g4
g3
tp733
I55394794
s(g4
g4
g3
tp734
I261010
s(g3
g3
g4
tp735
I811939
s(g3
g4
g4
tp736
I97389
s(g4
g3
g3
tp737
I821800
sg10
(g731
g11
g12
tp738
s(g4
g4
g4
tp739
I60345
s(g4
g3
g4
tp740
I76448
ssS'\xe5\xae\x9e\xe6\x96\xbd'
p741
(dp742
(g3
g4
g3
tp743
I55394785
s(g4
g4
g3
tp744
I21050544
s(g3
g3
g4
tp745
I811926
s(g3
g4
g4
tp746
I97369
s(g4
g3
g3
tp747
I1613412
sg10
(g741
g11
g12
tp748
s(g4
g4
g4
tp749
I60252
s(g4
g3
g4
tp750
I85142
ssS'\xe6\xb1\x9f\xe6\xb3\xbd\xe6\xb0\x91'
p751
(dp752
(g83
g84
g83
tp753
I55394783
s(g84
g84
g83
tp754
I35178
s(g83
g83
g84
tp755
I811947
s(g83
g84
g84
tp756
I97339
s(g84
g83
g83
tp757
I80232
sg90
(g751
g91
g92
tp758
s(g84
g84
g84
tp759
I17159
s(g84
g83
g84
tp760
I8007
ssS'\xe6\x9c\xba\xe6\x9e\x84'
p761
(dp762
(g3
g4
g3
tp763
I55394787
s(g4
g4
g3
tp764
I2429419
s(g3
g3
g4
tp765
I811926
s(g3
g4
g4
tp766
I97369
s(g4
g3
g3
tp767
I3394697
sg10
(g761
g11
g12
tp768
s(g4
g4
g4
tp769
I58942
s(g4
g3
g4
tp770
I313431
ssS'\xe5\x9b\xbd\xe6\x9c\x89\xe7\xbb\x8f\xe6\xb5\x8e'
p771
(dp772
(g3
g4
g3
tp773
I55394787
s(g4
g4
g3
tp774
I7611
s(g3
g3
g4
tp775
I811939
s(g3
g4
g4
tp776
I97369
s(g4
g3
g3
tp777
I313179
sg10
(g771
g11
g12
tp778
s(g4
g4
g4
tp779
I8254
s(g4
g3
g4
tp780
I2043
ssS'\xe5\xb0\x8f\xe5\xba\xb7\xe7\xa4\xbe\xe4\xbc\x9a'
p781
(dp782
(g3
g4
g3
tp783
I55394787
s(g4
g4
g3
tp784
I48782
s(g3
g3
g4
tp785
I811926
s(g3
g4
g4
tp786
I97369
s(g4
g3
g3
tp787
I69550
sg10
(g781
g11
g12
tp788
s(g4
g4
g4
tp789
I49941
s(g4
g3
g4
tp790
I31387
ssS'\xe6\x88\x91\xe5\x9b\xbd'
p791
(dp792
(g28
g29
g28
tp793
I55394756
s(g29
g29
g28
tp794
I3399321
s(g28
g28
g29
tp795
I678335
s(g28
g29
g29
tp796
I101453
s(g29
g28
g28
tp797
I2942649
sg35
(g791
g36
g37
tp798
s(g29
g29
g29
tp799
I67944
s(g29
g28
g29
tp800
I445699
ssS'\xe7\xa4\xbe\xe4\xbc\x9a'
p801
(dp802
(g3
g4
g3
tp803
I55394794
s(g4
g4
g3
tp804
I768608
s(g3
g3
g4
tp805
I811926
s(g3
g4
g4
tp806
I97369
s(g4
g3
g3
tp807
I5847316
sg10
(g801
g11
g12
tp808
s(g4
g4
g4
tp809
I59400
s(g4
g3
g4
tp810
I91167
ssS'\xe5\x90\x84\xe6\x97\x8f\xe4\xba\xba\xe6\xb0\x91'
p811
(dp812
(g3
g4
g3
tp813
I55394787
s(g4
g4
g3
tp814
I54936
s(g3
g3
g4
tp815
I811926
s(g3
g4
g4
tp816
I97369
s(g4
g3
g3
tp817
I22906
sg10
(g811
g11
g12
tp818
s(g4
g4
g4
tp819
I84461
s(g4
g3
g4
tp820
I42473
ssS'\xe7\xa4\xbe\xe4\xbc\x9a\xe4\xb8\xbb\xe4\xb9\x89'
p821
(dp822
(g3
g4
g3
tp823
I55394787
s(g4
g4
g3
tp824
I425773
s(g3
g3
g4
tp825
I811926
s(g3
g4
g4
tp826
I97369
s(g4
g3
g3
tp827
I321353
sg10
(g821
g11
g12
tp828
s(g4
g4
g4
tp829
I58113
s(g4
g3
g4
tp830
I29426
ssS'\xe9\x87\x8d\xe7\x82\xb9'
p831
(dp832
(g3
g4
g3
tp833
I55394793
s(g4
g4
g3
tp834
I1612215
s(g3
g3
g4
tp835
I811939
s(g3
g4
g4
tp836
I97369
s(g4
g3
g3
tp837
I3137242
sg10
(g831
g11
g12
tp838
s(g4
g4
g4
tp839
I71274
s(g4
g3
g4
tp840
I70531
ssS'\xe7\xbb\x8f\xe6\xb5\x8e'
p841
(dp842
(g83
g84
g83
tp843
I55394783
s(g84
g84
g83
tp844
I634337
s(g83
g83
g84
tp845
I811947
s(g83
g84
g84
tp846
I97339
s(g84
g83
g83
tp847
I21379897
sg90
(g841
g91
g92
tp848
s(g84
g84
g84
tp849
I71319
s(g84
g83
g84
tp850
I189504
ssS'\xe5\x9f\xba\xe6\x9c\xac'
p851
(dp852
(g338
g339
g338
tp853
I55394756
s(g339
g339
g338
tp854
I1257565
s(g338
g338
g339
tp855
I678335
s(g338
g339
g339
tp856
I97334
s(g339
g338
g338
tp857
I10019818
sg345
(g851
g346
g347
tp858
s(g339
g339
g339
tp859
I84302
s(g339
g338
g339
tp860
I337910
ssS'\xe5\x9b\xbd\xe5\xae\xb6'
p861
(dp862
(g28
g29
g28
tp863
I55394756
s(g29
g29
g28
tp864
I1708482
s(g28
g28
g29
tp865
I678335
s(g28
g29
g29
tp866
I101453
s(g29
g28
g28
tp867
I41584907
sg35
(g861
g36
g37
tp868
s(g29
g29
g29
tp869
I84037
s(g29
g28
g29
tp870
I2008798
ssS'\xe7\xae\xa1\xe7\x90\x86\xe4\xbd\x93\xe5\x88\xb6'
p871
(dp872
(g228
g229
g228
tp873
I55394785
s(g229
g229
g228
tp874
I214684
s(g228
g228
g229
tp875
I812104
s(g228
g229
g229
tp876
I97369
s(g229
g228
g228
tp877
I905502
sg235
(g871
g236
g237
tp878
s(g229
g229
g229
tp879
I24457
s(g229
g228
g229
tp880
I16593
ssS'\xe4\xbe\x9d\xe6\xb3\x95\xe6\xb2\xbb\xe5\x9b\xbd'
p881
(dp882
(g3
g4
g3
tp883
I55394787
s(g4
g4
g3
tp884
I53282
s(g3
g3
g4
tp885
I811926
s(g3
g4
g4
tp886
I97369
s(g4
g3
g3
tp887
I191060
sg10
(g881
g11
g12
tp888
s(g4
g4
g4
tp889
I76491
s(g4
g3
g4
tp890
I43601
ssS'\xe7\xac\xac\xe5\x8d\x81\xe4\xba\x94\xe5\xb1\x8a'
p891
(dp892
(g3
g4
g3
tp893
I55394794
s(g4
g4
g3
tp894
I25038
s(g3
g3
g4
tp895
I811939
s(g3
g4
g4
tp896
I97389
s(g4
g3
g3
tp897
I233133
sg10
(g891
g11
g12
tp898
s(g4
g4
g4
tp899
I12766
s(g4
g3
g4
tp900
I12949
ssS'\xe8\x83\xbd\xe5\x8a\x9b'
p901
(dp902
(g3
g4
g3
tp903
I55394794
s(g4
g4
g3
tp904
I770348
s(g3
g3
g4
tp905
I811939
s(g3
g4
g4
tp906
I97369
s(g4
g3
g3
tp907
I9182454
sg10
(g901
g11
g12
tp908
s(g4
g4
g4
tp909
I58992
s(g4
g3
g4
tp910
I64371
ssS'\xe5\xb7\xa5\xe4\xbd\x9c'
p911
(dp912
(g3
g4
g3
tp913
I55394787
s(g4
g4
g3
tp914
I2689942
s(g3
g3
g4
tp915
I811939
s(g3
g4
g4
tp916
I97369
s(g4
g3
g3
tp917
I27861395
sg10
(g911
g11
g12
tp918
s(g4
g4
g4
tp919
I59709
s(g4
g3
g4
tp920
I150710
ssS'\xe4\xb9\xa0\xe8\xbf\x91\xe5\xb9\xb3'
p921
(dp922
(g3
g4
g3
tp923
I55394794
s(g4
g4
g3
tp924
I27685
s(g3
g3
g4
tp925
I811926
s(g3
g4
g4
tp926
I97389
s(g4
g3
g3
tp927
I564977
sg10
(g921
g11
g12
tp928
s(g4
g4
g4
tp929
I13222
s(g4
g3
g4
tp930
I21027
ssS'\xe6\xb3\x95\xe5\xbe\x8b'
p931
(dp932
(g338
g339
g338
tp933
I55394756
s(g339
g339
g338
tp934
I702385
s(g338
g338
g339
tp935
I678335
s(g338
g339
g339
tp936
I101453
s(g339
g338
g338
tp937
I11749069
sg345
(g931
g346
g347
tp938
s(g339
g339
g339
tp939
I56709
s(g339
g338
g339
tp940
I118957
ssS'\xe5\x85\x9a\xe7\x9a\x84\xe9\xa2\x86\xe5\xaf\xbc'
p941
(dp942
(g338
g339
g338
tp943
I55394756
s(g339
g339
g338
tp944
I200995
s(g338
g338
g339
tp945
I678335
s(g338
g339
g339
tp946
I101453
s(g339
g338
g338
tp947
I158363
sg345
(g941
g346
g347
tp948
s(g339
g339
g339
tp949
I79267
s(g339
g338
g339
tp950
I62575
ssS'\xe6\x96\x87\xe5\x8c\x96\xe4\xba\xa7\xe4\xb8\x9a'
p951
(dp952
(g3
g4
g3
tp953
I55394794
s(g4
g4
g3
tp954
I109556
s(g3
g3
g4
tp955
I811939
s(g3
g4
g4
tp956
I97389
s(g4
g3
g3
tp957
I262709
sg10
(g951
g11
g12
tp958
s(g4
g4
g4
tp959
I27248
s(g4
g3
g4
tp960
I7606
ssS'\xe4\xb8\x8d\xe6\x96\xad'
p961
(dp962
(g228
g229
g228
tp963
I55394785
s(g229
g229
g228
tp964
I217594
s(g228
g228
g229
tp965
I812104
s(g228
g229
g229
tp966
I97369
s(g229
g228
g228
tp967
I646204
sg235
(g961
g236
g237
tp968
s(g229
g229
g229
tp969
I68455
s(g229
g228
g229
tp970
I70817
ssS'\xe5\x8d\x81\xe5\x85\xab'
p971
(dp972
(g83
g84
g83
tp973
I55394783
s(g84
g84
g83
tp974
I218916
s(g83
g83
g84
tp975
I811947
s(g83
g84
g84
tp976
I97339
s(g84
g83
g83
tp977
I958596
sg90
(g971
g91
g92
tp978
s(g84
g84
g84
tp979
I55515
s(g84
g83
g84
tp980
I75273
ssS'\xe7\xa7\x91\xe5\xad\xa6'
p981
(dp982
(g228
g229
g228
tp983
I55394785
s(g229
g229
g228
tp984
I1694616
s(g228
g228
g229
tp985
I812104
s(g228
g229
g229
tp986
I97369
s(g229
g228
g228
tp987
I26303923
sg235
(g981
g236
g237
tp988
s(g229
g229
g229
tp989
I54271
s(g229
g228
g229
tp990
I91821
ssS'\xe5\xbb\xba\xe8\xae\xbe'
p991
(dp992
(g83
g84
g83
tp993
I55394783
s(g84
g84
g83
tp994
I1648657
s(g83
g83
g84
tp995
I811947
s(g83
g84
g84
tp996
I97339
s(g84
g83
g83
tp997
I17181309
sg90
(g991
g91
g92
tp998
s(g84
g84
g84
tp999
I57632
s(g84
g83
g84
tp1000
I187149
ssS'\xe7\xbb\x8f\xe6\xb5\x8e\xe7\xa4\xbe\xe4\xbc\x9a'
p1001
(dp1002
(g3
g4
g3
tp1003
I55394787
s(g4
g4
g3
tp1004
I36940
s(g3
g3
g4
tp1005
I811926
s(g3
g4
g4
tp1006
I97369
s(g4
g3
g3
tp1007
I95828
sg10
(g1001
g11
g12
tp1008
s(g4
g4
g4
tp1009
I12626
s(g4
g3
g4
tp1010
I7399
ssS'\xe7\xac\xac\xe5\x8d\x81\xe5\x85\xab\xe5\xb1\x8a'
p1011
(dp1012
(g3
g4
g3
tp1013
I55394794
s(g4
g4
g3
tp1014
I17837
s(g3
g3
g4
tp1015
I811926
s(g3
g4
g4
tp1016
I97389
s(g4
g3
g3
tp1017
I46353
sg10
(g1011
g11
g12
tp1018
s(g4
g4
g4
tp1019
I10084
s(g4
g3
g4
tp1020
I8683
ssS'\xe6\xb7\xb1\xe5\x8c\x96\xe6\x94\xb9\xe9\x9d\xa9'
p1021
(dp1022
(g28
g29
g28
tp1023
I55394756
s(g29
g29
g28
tp1024
I33887
s(g28
g28
g29
tp1025
I678335
s(g28
g29
g29
tp1026
I101453
s(g29
g28
g28
tp1027
I200537
sg35
(g1021
g36
g37
tp1028
s(g29
g29
g29
tp1029
I26519
s(g29
g28
g29
tp1030
I17230
ssS'\xe5\x9b\xbd\xe6\x9c\x89\xe4\xbc\x81\xe4\xb8\x9a'
p1031
(dp1032
(g3
g4
g3
tp1033
I55394787
s(g4
g4
g3
tp1034
I71291
s(g3
g3
g4
tp1035
I811926
s(g3
g4
g4
tp1036
I97369
s(g4
g3
g3
tp1037
I346415
sg10
(g1031
g11
g12
tp1038
s(g4
g4
g4
tp1039
I59836
s(g4
g3
g4
tp1040
I22970
ssS'\xe5\x85\x9a\xe5\x86\x85'
p1041
(dp1042
(g338
g339
g338
tp1043
I55394756
s(g339
g339
g338
tp1044
I47715
s(g338
g338
g339
tp1045
I678335
s(g338
g339
g339
tp1046
I101453
s(g339
g338
g338
tp1047
I61179
sg345
(g1041
g346
g347
tp1048
s(g339
g339
g339
tp1049
I24920
s(g339
g338
g339
tp1050
I3839
ssS'\xe5\xb9\xb2\xe9\x83\xa8'
p1051
(dp1052
(g338
g339
g338
tp1053
I55394756
s(g339
g339
g338
tp1054
I4555140
s(g338
g338
g339
tp1055
I678335
s(g338
g339
g339
tp1056
I101453
s(g339
g338
g338
tp1057
I3365029
sg345
(g1051
g346
g347
tp1058
s(g339
g339
g339
tp1059
I43574
s(g339
g338
g339
tp1060
I201770
ssS'\xe5\x88\xb6\xe5\xba\xa6'
p1061
(dp1062
(g3
g4
g3
tp1063
I55394794
s(g4
g4
g3
tp1064
I1501250
s(g3
g3
g4
tp1065
I811939
s(g3
g4
g4
tp1066
I97389
s(g4
g3
g3
tp1067
I4206108
sg10
(g1061
g11
g12
tp1068
s(g4
g4
g4
tp1069
I56489
s(g4
g3
g4
tp1070
I251301
ssS'\xe4\xbd\x93\xe5\x88\xb6\xe6\x94\xb9\xe9\x9d\xa9'
p1071
(dp1072
(g338
g339
g338
tp1073
I55394756
s(g339
g339
g338
tp1074
I145152
s(g338
g338
g339
tp1075
I678335
s(g338
g339
g339
tp1076
I97334
s(g339
g338
g338
tp1077
I27927
sg345
(g1071
g346
g347
tp1078
s(g339
g339
g339
tp1079
I33165
s(g339
g338
g339
tp1080
I21810
ssS'\xe7\xbb\x93\xe5\x90\x88'
p1081
(dp1082
(g3
g4
g3
tp1083
I55394794
s(g4
g4
g3
tp1084
I708139
s(g3
g3
g4
tp1085
I811939
s(g3
g4
g4
tp1086
I97389
s(g4
g3
g3
tp1087
I4208655
sg10
(g1081
g11
g12
tp1088
s(g4
g4
g4
tp1089
I69351
s(g4
g3
g4
tp1090
I72939
ssS'\xe5\x8d\x81\xe4\xb8\x80\xe4\xba\x94'
p1091
(dp1092
(g3
g4
g3
tp1093
I55394785
s(g4
g4
g3
tp1094
I608251
s(g3
g3
g4
tp1095
I811926
s(g3
g4
g4
tp1096
I97369
s(g4
g3
g3
tp1097
I171613
sg10
(g1091
g11
g12
tp1098
s(g4
g4
g4
tp1099
I6350
s(g4
g3
g4
tp1100
I3244
ssS'\xe5\x9b\xbd\xe5\x8a\xa1\xe9\x99\xa2'
p1101
(dp1102
(g3
g4
g3
tp1103
I55394785
s(g4
g4
g3
tp1104
I106873
s(g3
g3
g4
tp1105
I811926
s(g3
g4
g4
tp1106
I97369
s(g4
g3
g3
tp1107
I281064
sg10
(g1101
g11
g12
tp1108
s(g4
g4
g4
tp1109
I37619
s(g4
g3
g4
tp1110
I47917
ssS'\xe4\xbc\x9a\xe8\xae\xae'
p1111
(dp1112
(g228
g229
g228
tp1113
I55394785
s(g229
g229
g228
tp1114
I469810
s(g228
g228
g229
tp1115
I812104
s(g228
g229
g229
tp1116
I97369
s(g229
g228
g228
tp1117
I3230764
sg235
(g1111
g236
g237
tp1118
s(g229
g229
g229
tp1119
I59903
s(g229
g228
g229
tp1120
I212022
ssS'\xe8\xb4\xaf\xe5\xbd\xbb'
p1121
(dp1122
(g3
g4
g3
tp1123
I55394794
s(g4
g4
g3
tp1124
I159125
s(g3
g3
g4
tp1125
I811939
s(g3
g4
g4
tp1126
I97339
s(g4
g3
g3
tp1127
I194858
sg10
(g1121
g11
g12
tp1128
s(g4
g4
g4
tp1129
I48094
s(g4
g3
g4
tp1130
I51130
ssS'\xe5\x85\xa8\xe4\xbc\x9a'
p1131
(dp1132
(g3
g4
g3
tp1133
I55394794
s(g4
g4
g3
tp1134
I67074
s(g3
g3
g4
tp1135
I811926
s(g3
g4
g4
tp1136
I97369
s(g4
g3
g3
tp1137
I527722
sg10
(g1131
g11
g12
tp1138
s(g4
g4
g4
tp1139
I48739
s(g4
g3
g4
tp1140
I45041
ssS'\xe7\xab\x8b\xe6\xb3\x95'
p1141
(dp1142
(g3
g4
g3
tp1143
I55394794
s(g4
g4
g3
tp1144
I92325
s(g3
g3
g4
tp1145
I811939
s(g3
g4
g4
tp1146
I97389
s(g4
g3
g3
tp1147
I463515
sg10
(g1141
g11
g12
tp1148
s(g4
g4
g4
tp1149
I54729
s(g4
g3
g4
tp1150
I189799
ssS'\xe6\x8e\xa8\xe8\xbf\x9b'
p1151
(dp1152
(g3
g4
g3
tp1153
I55394787
s(g4
g4
g3
tp1154
I665235
s(g3
g3
g4
tp1155
I811926
s(g3
g4
g4
tp1156
I97369
s(g4
g3
g3
tp1157
I1236059
sg10
(g1151
g11
g12
tp1158
s(g4
g4
g4
tp1159
I52466
s(g4
g3
g4
tp1160
I95200
ssS'\xe9\xa2\x86\xe5\xaf\xbc\xe4\xba\xba\xe5\x91\x98'
p1161
(dp1162
(g3
g4
g3
tp1163
I55394794
s(g4
g4
g3
tp1164
I10936
s(g3
g3
g4
tp1165
I811939
s(g3
g4
g4
tp1166
I97389
s(g4
g3
g3
tp1167
I5783
sg10
(g1161
g11
g12
tp1168
s(g4
g4
g4
tp1169
I24766
s(g4
g3
g4
tp1170
I30279
ssS'\xe9\x9d\x9e\xe5\x85\xac\xe6\x9c\x89\xe5\x88\xb6'
p1171
(dp1172
(g3
g4
g3
tp1173
I55394787
s(g4
g4
g3
tp1174
I82871
s(g3
g3
g4
tp1175
I811926
s(g3
g4
g4
tp1176
I97369
s(g4
g3
g3
tp1177
I27051
sg10
(g1171
g11
g12
tp1178
s(g4
g4
g4
tp1179
I67524
s(g4
g3
g4
tp1180
I28221
ssS'\xe4\xb8\xad\xe5\x9b\xbd\xe5\x85\xb1\xe4\xba\xa7\xe5\x85\x9a'
p1181
(dp1182
(g3
g4
g3
tp1183
I55394794
s(g4
g4
g3
tp1184
I199839
s(g3
g3
g4
tp1185
I811926
s(g3
g4
g4
tp1186
I97369
s(g4
g3
g3
tp1187
I379161
sg10
(g1181
g11
g12
tp1188
s(g4
g4
g4
tp1189
I88222
s(g4
g3
g4
tp1190
I40078
ssS'\xe6\x89\xa7\xe6\x94\xbf'
p1191
(dp1192
(g3
g4
g3
tp1193
I55394794
s(g4
g4
g3
tp1194
I73838
s(g3
g3
g4
tp1195
I811926
s(g3
g4
g4
tp1196
I97369
s(g4
g3
g3
tp1197
I1083894
sg10
(g1191
g11
g12
tp1198
s(g4
g4
g4
tp1199
I56503
s(g4
g3
g4
tp1200
I62367
ssS'\xe5\x9d\x9a\xe6\x8c\x81'
p1201
(dp1202
(g3
g4
g3
tp1203
I55394785
s(g4
g4
g3
tp1204
I238390
s(g3
g3
g4
tp1205
I811926
s(g3
g4
g4
tp1206
I97369
s(g4
g3
g3
tp1207
I2750212
sg10
(g1201
g11
g12
tp1208
s(g4
g4
g4
tp1209
I63065
s(g4
g3
g4
tp1210
I67457
ssS'\xe5\x85\xa8\xe5\x85\x9a\xe5\x85\xa8\xe5\x9b\xbd'
p1211
(dp1212
(g338
g339
g338
tp1213
I55394756
s(g339
g339
g338
tp1214
I12932
s(g338
g338
g339
tp1215
I678335
s(g338
g339
g339
tp1216
I101453
s(g339
g338
g338
tp1217
I9971
sg345
(g1211
g346
g347
tp1218
s(g339
g339
g339
tp1219
I28571
s(g339
g338
g339
tp1220
I14021
ssS'\xe6\x8f\x90\xe9\xab\x98'
p1221
(dp1222
(g3
g4
g3
tp1223
I55394794
s(g4
g4
g3
tp1224
I2611564
s(g3
g3
g4
tp1225
I811939
s(g3
g4
g4
tp1226
I97389
s(g4
g3
g3
tp1227
I2310884
sg10
(g1221
g11
g12
tp1228
s(g4
g4
g4
tp1229
I67546
s(g4
g3
g4
tp1230
I109164
ssS'\xe5\xae\xa1\xe8\xae\xae'
p1231
(dp1232
(g3
g4
g3
tp1233
I55394793
s(g4
g4
g3
tp1234
I66383
s(g3
g3
g4
tp1235
I811926
s(g3
g4
g4
tp1236
I97389
s(g4
g3
g3
tp1237
I951806
sg10
(g1231
g11
g12
tp1238
s(g4
g4
g4
tp1239
I43402
s(g4
g3
g4
tp1240
I42196
ssS'\xe6\x94\xb9\xe8\xbf\x9b'
p1241
(dp1242
(g3
g4
g3
tp1243
I55394794
s(g4
g4
g3
tp1244
I390828
s(g3
g3
g4
tp1245
I811939
s(g3
g4
g4
tp1246
I97389
s(g4
g3
g3
tp1247
I722135
sg10
(g1241
g11
g12
tp1248
s(g4
g4
g4
tp1249
I47681
s(g4
g3
g4
tp1250
I61152
ssS'\xe5\xae\x8c\xe5\x96\x84'
p1251
(dp1252
(g338
g339
g338
tp1253
I55394756
s(g339
g339
g338
tp1254
I182208
s(g338
g338
g339
tp1255
I678335
s(g338
g339
g339
tp1256
I97334
s(g339
g338
g338
tp1257
I1232722
sg345
(g1251
g346
g347
tp1258
s(g339
g339
g339
tp1259
I57691
s(g339
g338
g339
tp1260
I59973
ssS'\xe5\x8f\x8d\xe5\xaf\xb9'
p1261
(dp1262
(g83
g84
g83
tp1263
I55394783
s(g84
g84
g83
tp1264
I335140
s(g83
g83
g84
tp1265
I811947
s(g83
g84
g84
tp1266
I97339
s(g84
g83
g83
tp1267
I1791070
sg90
(g1261
g91
g92
tp1268
s(g84
g84
g84
tp1269
I65536
s(g84
g83
g84
tp1270
I128790
ssS'\xe5\xae\x9e\xe7\x8e\xb0'
p1271
(dp1272
(g3
g4
g3
tp1273
I55394787
s(g4
g4
g3
tp1274
I1117483
s(g3
g3
g4
tp1275
I811926
s(g3
g4
g4
tp1276
I97369
s(g4
g3
g3
tp1277
I4341197
sg10
(g1271
g11
g12
tp1278
s(g4
g4
g4
tp1279
I65018
s(g4
g3
g4
tp1280
I49223
ssS'\xe5\x85\xa8\xe9\x9d\xa2'
p1281
(dp1282
(g3
g4
g3
tp1283
I55394794
s(g4
g4
g3
tp1284
I627501
s(g3
g3
g4
tp1285
I811939
s(g3
g4
g4
tp1286
I97389
s(g4
g3
g3
tp1287
I3318468
sg10
(g1281
g11
g12
tp1288
s(g4
g4
g4
tp1289
I54669
s(g4
g3
g4
tp1290
I68658
ssS'\xe5\x9b\xbd\xe6\xb0\x91\xe7\xbb\x8f\xe6\xb5\x8e'
p1291
(dp1292
(g338
g339
g338
tp1293
I55394779
s(g339
g339
g338
tp1294
I139241
s(g338
g338
g339
tp1295
I678335
s(g338
g339
g339
tp1296
I101453
s(g339
g338
g338
tp1297
I75414
sg345
(g1291
g346
g347
tp1298
s(g339
g339
g339
tp1299
I55416
s(g339
g338
g339
tp1300
I23542
ssS'\xe5\xb9\xb2\xe9\x83\xa8\xe9\x98\x9f\xe4\xbc\x8d'
p1301
(dp1302
(g3
g4
g3
tp1303
I55394787
s(g4
g4
g3
tp1304
I23739
s(g3
g3
g4
tp1305
I811926
s(g3
g4
g4
tp1306
I97369
s(g4
g3
g3
tp1307
I25187
sg10
(g1301
g11
g12
tp1308
s(g4
g4
g4
tp1309
I19874
s(g4
g3
g4
tp1310
I8881
ssS'\xe9\xa2\x86\xe5\xaf\xbc'
p1311
(dp1312
(g83
g84
g83
tp1313
I55394783
s(g84
g84
g83
tp1314
I658251
s(g83
g83
g84
tp1315
I811947
s(g83
g84
g84
tp1316
I97339
s(g84
g83
g83
tp1317
I3228020
sg90
(g1311
g91
g92
tp1318
s(g84
g84
g84
tp1319
I58516
s(g84
g83
g84
tp1320
I98222
ssS'\xe4\xbb\xb7\xe5\x80\xbc\xe4\xbd\x93\xe7\xb3\xbb'
p1321
(dp1322
(g263
g264
g263
tp1323
I55394787
s(g264
g264
g263
tp1324
I64903
s(g263
g263
g264
tp1325
I811926
s(g263
g264
g264
tp1326
I97369
s(g264
g263
g263
tp1327
I44718
sg270
(g1321
g271
g272
tp1328
s(g264
g264
g264
tp1329
I12705
s(g264
g263
g264
tp1330
I4909
ssS'\xe9\x87\x8d\xe8\xa6\x81'
p1331
(dp1332
(g3
g4
g3
tp1333
I55394794
s(g4
g4
g3
tp1334
I3499290
s(g3
g3
g4
tp1335
I811939
s(g3
g4
g4
tp1336
I97389
s(g4
g3
g3
tp1337
I5988849
sg10
(g1331
g11
g12
tp1338
s(g4
g4
g4
tp1339
I69871
s(g4
g3
g4
tp1340
I108189
ssS'\xe9\xa9\xac\xe5\x85\x8b\xe6\x80\x9d\xe4\xb8\xbb\xe4\xb9\x89'
p1341
(dp1342
(g3
g4
g3
tp1343
I55394794
s(g4
g4
g3
tp1344
I350191
s(g3
g3
g4
tp1345
I811939
s(g3
g4
g4
tp1346
I97389
s(g4
g3
g3
tp1347
I281242
sg10
(g1341
g11
g12
tp1348
s(g4
g4
g4
tp1349
I83783
s(g4
g3
g4
tp1350
I46428
ssS'\xe5\x85\xac\xe5\xb9\xb3\xe6\xad\xa3\xe4\xb9\x89'
p1351
(dp1352
(g83
g84
g83
tp1353
I55394783
s(g84
g84
g83
tp1354
I86298
s(g83
g83
g84
tp1355
I811947
s(g83
g84
g84
tp1356
I97339
s(g84
g83
g83
tp1357
I259029
sg90
(g1351
g91
g92
tp1358
s(g84
g84
g84
tp1359
I73079
s(g84
g83
g84
tp1360
I40990
ssS'\xe4\xb8\xad\xe5\xa4\xae\xe6\x94\xbf\xe6\xb2\xbb\xe5\xb1\x80'
p1361
(dp1362
(g338
g339
g338
tp1363
I55394779
s(g339
g339
g338
tp1364
I74137
s(g338
g338
g339
tp1365
I678335
s(g338
g339
g339
tp1366
I101453
s(g339
g338
g338
tp1367
I34785
sg345
(g1361
g346
g347
tp1368
s(g339
g339
g339
tp1369
I66342
s(g339
g338
g339
tp1370
I35606
ssS'\xe5\x85\xac\xe6\x9c\x89\xe5\x88\xb6'
p1371
(dp1372
(g338
g339
g338
tp1373
I55394756
s(g339
g339
g338
tp1374
I38208
s(g338
g338
g339
tp1375
I678335
s(g338
g339
g339
tp1376
I101453
s(g339
g338
g338
tp1377
I393879
sg345
(g1371
g346
g347
tp1378
s(g339
g339
g339
tp1379
I63432
s(g339
g338
g339
tp1380
I54720
ssS'\xe5\x81\xa5\xe5\x85\xa8'
p1381
(dp1382
(g3
g4
g3
tp1383
I55394787
s(g4
g4
g3
tp1384
I95057
s(g3
g3
g4
tp1385
I811939
s(g3
g4
g4
tp1386
I97389
s(g4
g3
g3
tp1387
I58962
sg10
(g1381
g11
g12
tp1388
s(g4
g4
g4
tp1389
I51076
s(g4
g3
g4
tp1390
I44156
ssS'\xe5\x8d\x81\xe4\xba\x94\xe5\xa4\xa7'
p1391
(dp1392
(g3
g4
g3
tp1393
I55394787
s(g4
g4
g3
tp1394
I3539
s(g3
g3
g4
tp1395
I811926
s(g3
g4
g4
tp1396
I97369
s(g4
g3
g3
tp1397
I41735
sg10
(g1391
g11
g12
tp1398
s(g4
g4
g4
tp1399
I11621
s(g4
g3
g4
tp1400
I4492
ssS'\xe4\xb9\x9d\xe5\xb1\x8a\xe5\x85\xa8\xe5\x9b\xbd\xe4\xba\xba\xe5\xa4\xa7'
p1401
(dp1402
(g3
g4
g3
tp1403
I55394794
s(g4
g4
g3
tp1404
I28268
s(g3
g3
g4
tp1405
I811926
s(g3
g4
g4
tp1406
I97389
s(g4
g3
g3
tp1407
I23618
sg10
(g1401
g11
g12
tp1408
s(g4
g4
g4
tp1409
I16134
s(g4
g3
g4
tp1410
I22898
ssS'\xe8\xbd\xac\xe5\x8f\x98'
p1411
(dp1412
(g3
g4
g3
tp1413
I55394787
s(g4
g4
g3
tp1414
I396928
s(g3
g3
g4
tp1415
I811926
s(g3
g4
g4
tp1416
I97369
s(g4
g3
g3
tp1417
I852021
sg10
(g1411
g11
g12
tp1418
s(g4
g4
g4
tp1419
I73878
s(g4
g3
g4
tp1420
I86347
ssS'\xe6\x8e\xa8\xe5\x8a\xa8'
p1421
(dp1422
(g228
g229
g228
tp1423
I55394785
s(g229
g229
g228
tp1424
I3203062
s(g228
g228
g229
tp1425
I812104
s(g228
g229
g229
tp1426
I97369
s(g229
g228
g228
tp1427
I1814896
sg235
(g1421
g236
g237
tp1428
s(g229
g229
g229
tp1429
I67637
s(g229
g228
g229
tp1430
I101938
ssS'\xe6\xb3\x95\xe6\xb2\xbb'
p1431
(dp1432
(g3
g4
g3
tp1433
I55394794
s(g4
g4
g3
tp1434
I327884
s(g3
g3
g4
tp1435
I811939
s(g3
g4
g4
tp1436
I97369
s(g4
g3
g3
tp1437
I1553879
sg10
(g1431
g11
g12
tp1438
s(g4
g4
g4
tp1439
I42228
s(g4
g3
g4
tp1440
I51529
ssS'\xe5\x8f\x91\xe5\xb1\x95'
p1441
(dp1442
(g3
g4
g3
tp1443
I55394794
s(g4
g4
g3
tp1444
I972707
s(g3
g3
g4
tp1445
I811939
s(g3
g4
g4
tp1446
I97389
s(g4
g3
g3
tp1447
I10452231
sg10
(g1441
g11
g12
tp1448
s(g4
g4
g4
tp1449
I70624
s(g4
g3
g4
tp1450
I129310
ssS'\xe6\x8a\x97\xe7\x81\xbe\xe6\x95\x91\xe7\x81\xbe'
p1451
(dp1452
(g228
g229
g228
tp1453
I55394785
s(g229
g229
g228
tp1454
I73681
s(g228
g228
g229
tp1455
I812104
s(g228
g229
g229
tp1456
I97369
s(g229
g228
g228
tp1457
I113995
sg235
(g1451
g236
g237
tp1458
s(g229
g229
g229
tp1459
I23732
s(g229
g228
g229
tp1460
I19604
ss.