(dp0
S'\xe4\xbe\x9d\xe6\xb3\x95'
p1
(dp2
(S'?'
p3
S'+'
p4
g3
tp5
I248806
s(g4
g4
g3
tp6
I57664
s(g3
g3
g4
tp7
I620251
s(g3
g4
g4
tp8
I22200
s(g4
g3
g3
tp9
I4475444
sS'words'
p10
(g1
S'\xe6\xb8\x85\xe5\xbb\x89'
p11
S'\xe8\x85\x90\xe8\xb4\xa5'
p12
tp13
s(g4
g4
g4
tp14
I41865
s(g4
g3
g4
tp15
I46580
ssS'\xe8\xae\xb8\xe8\xbf\x90\xe9\xb8\xbf'
p16
(dp17
(g3
g4
g3
tp18
I248742
s(g4
g4
g3
tp19
I2990
s(g3
g3
g4
tp20
I620251
s(g3
g4
g4
tp21
I22200
s(g4
g3
g3
tp22
I21502
sg10
(g16
g11
g12
tp23
s(g4
g4
g4
tp24
I2609
s(g4
g3
g4
tp25
I13010
ssS'\xe7\xbb\x8f\xe8\x90\xa5\xe7\xae\xa1\xe7\x90\x86\xe8\x80\x85'
p26
(dp27
(g3
g4
g3
tp28
I248742
s(g4
g4
g3
tp29
I7255
s(g3
g3
g4
tp30
I1709936
s(g3
g4
g4
tp31
I50665
s(g4
g3
g3
tp32
I159281
sg10
(g26
g11
g12
tp33
s(g4
g4
g4
tp34
I5558
s(g4
g3
g4
tp35
I6154
ssS'\xe5\x85\xa8\xe5\x85\x9a'
p36
(dp37
(g3
g4
g3
tp38
I248780
s(g4
g4
g3
tp39
I69523
s(g3
g3
g4
tp40
I329457
s(g3
g4
g4
tp41
I22204
s(g4
g3
g3
tp42
I68282
sg10
(g36
g11
g12
tp43
s(g4
g4
g4
tp44
I46486
s(g4
g3
g4
tp45
I58335
ssS'\xe7\xac\xac\xe5\x8d\x81\xe5\x85\xad\xe6\xac\xa1'
p46
(dp47
(g3
g4
g3
tp48
I248806
s(g4
g4
g3
tp49
I4726
s(g3
g3
g4
tp50
I620251
s(g3
g4
g4
tp51
I22200
s(g4
g3
g3
tp52
I35319
sg10
(g46
g11
g12
tp53
s(g4
g4
g4
tp54
I2651
s(g4
g3
g4
tp55
I1649
ssS'\xe5\x8a\xa0\xe5\xbf\xab'
p56
(dp57
(g3
g4
g3
tp58
I248742
s(g4
g4
g3
tp59
I40901
s(g3
g3
g4
tp60
I1709936
s(g3
g4
g4
tp61
I50665
s(g4
g3
g3
tp62
I4296664
sg10
(g56
g11
g12
tp63
s(g4
g4
g4
tp64
I51759
s(g4
g3
g4
tp65
I134405
ssS'\xe5\xb0\xb1\xe4\xb8\x9a'
p66
(dp67
(g3
g4
g3
tp68
I248806
s(g4
g4
g3
tp69
I33198
s(g3
g3
g4
tp70
I620251
s(g3
g4
g4
tp71
I22200
s(g4
g3
g3
tp72
I5227868
sg10
(g66
g11
g12
tp73
s(g4
g4
g4
tp74
I47418
s(g4
g3
g4
tp75
I44936
ssS'\xe5\x85\xa8\xe5\x9b\xbd\xe4\xba\xba\xe5\xa4\xa7'
p76
(dp77
(S'?'
p78
S'+'
p79
g78
tp80
I248780
s(g79
g79
g78
tp81
I8615
s(g78
g78
g79
tp82
I329457
s(g78
g79
g79
tp83
I22204
s(g79
g78
g78
tp84
I96092
sS'words'
p85
(g76
S'\xe6\xb8\x85\xe5\xbb\x89'
p86
S'\xe8\x85\x90\xe8\xb4\xa5'
p87
tp88
s(g79
g79
g79
tp89
I25581
s(g79
g78
g79
tp90
I27909
ssS'\xe7\x9d\x80\xe5\x8a\x9b'
p91
(dp92
(g3
g4
g3
tp93
I248806
s(g4
g4
g3
tp94
I60997
s(g3
g3
g4
tp95
I620254
s(g3
g4
g4
tp96
I22200
s(g4
g3
g3
tp97
I99868
sg10
(g91
g11
g12
tp98
s(g4
g4
g4
tp99
I55027
s(g4
g3
g4
tp100
I56491
ssS'\xe6\x96\xb9\xe5\xbc\x8f'
p101
(dp102
(g3
g4
g3
tp103
I248780
s(g4
g4
g3
tp104
I59663
s(g3
g3
g4
tp105
I329457
s(g3
g4
g4
tp106
I22204
s(g4
g3
g3
tp107
I570180
sg10
(g101
g11
g12
tp108
s(g4
g4
g4
tp109
I45132
s(g4
g3
g4
tp110
I87072
ssS'\xe6\x94\xb9\xe9\x9d\xa9'
p111
(dp112
(g3
g4
g3
tp113
I248806
s(g4
g4
g3
tp114
I29121
s(g3
g3
g4
tp115
I620251
s(g3
g4
g4
tp116
I22200
s(g4
g3
g3
tp117
I3097924
sg10
(g111
g11
g12
tp118
s(g4
g4
g4
tp119
I33600
s(g4
g3
g4
tp120
I119257
ssS'\xe7\xbe\xa4\xe4\xbc\x97'
p121
(dp122
(g3
g4
g3
tp123
I248806
s(g4
g4
g3
tp124
I28950
s(g3
g3
g4
tp125
I1709936
s(g3
g4
g4
tp126
I50665
s(g4
g3
g3
tp127
I662987
sg10
(g121
g11
g12
tp128
s(g4
g4
g4
tp129
I39531
s(g4
g3
g4
tp130
I108259
ssS'\xe4\xb8\x80\xe6\xac\xa1'
p131
(dp132
(g3
g4
g3
tp133
I248806
s(g4
g4
g3
tp134
I42413
s(g3
g3
g4
tp135
I620251
s(g3
g4
g4
tp136
I22200
s(g4
g3
g3
tp137
I13721476
sg10
(g131
g11
g12
tp138
s(g4
g4
g4
tp139
I30407
s(g4
g3
g4
tp140
I66492
ssS'\xe7\xb9\x81\xe8\x8d\xa3'
p141
(dp142
(g3
g4
g3
tp143
I248806
s(g4
g4
g3
tp144
I25443
s(g3
g3
g4
tp145
I1709936
s(g3
g4
g4
tp146
I50708
s(g4
g3
g3
tp147
I204143
sg10
(g141
g11
g12
tp148
s(g4
g4
g4
tp149
I55924
s(g4
g3
g4
tp150
I56518
ssS'\xe5\x9f\x8e\xe4\xb9\xa1'
p151
(dp152
(g3
g4
g3
tp153
I248780
s(g4
g4
g3
tp154
I41830
s(g3
g3
g4
tp155
I329457
s(g3
g4
g4
tp156
I22204
s(g4
g3
g3
tp157
I657273
sg10
(g151
g11
g12
tp158
s(g4
g4
g4
tp159
I44452
s(g4
g3
g4
tp160
I27888
ssS'\xe6\x80\x9d\xe6\x83\xb3'
p161
(dp162
(g3
g4
g3
tp163
I248806
s(g4
g4
g3
tp164
I64662
s(g3
g3
g4
tp165
I1709936
s(g3
g4
g4
tp166
I50665
s(g4
g3
g3
tp167
I2751605
sg10
(g161
g11
g12
tp168
s(g4
g4
g4
tp169
I48853
s(g4
g3
g4
tp170
I94984
ssS'\xe6\x8e\xa8\xe5\x8a\xa8'
p171
(dp172
(g3
g4
g3
tp173
I248742
s(g4
g4
g3
tp174
I75374
s(g3
g3
g4
tp175
I1709936
s(g3
g4
g4
tp176
I50665
s(g4
g3
g3
tp177
I1861696
sg10
(g171
g11
g12
tp178
s(g4
g4
g4
tp179
I48564
s(g4
g3
g4
tp180
I128359
ssS'\xe7\x8e\xb0\xe4\xbb\xa3\xe5\x8c\x96'
p181
(dp182
(g3
g4
g3
tp183
I248806
s(g4
g4
g3
tp184
I69714
s(g3
g3
g4
tp185
I620251
s(g3
g4
g4
tp186
I22200
s(g4
g3
g3
tp187
I1346515
sg10
(g181
g11
g12
tp188
s(g4
g4
g4
tp189
I60935
s(g4
g3
g4
tp190
I59444
ssS'\xe6\x9c\xba\xe5\x88\xb6'
p191
(dp192
(g3
g4
g3
tp193
I248742
s(g4
g4
g3
tp194
I54686
s(g3
g3
g4
tp195
I620251
s(g3
g4
g4
tp196
I22200
s(g4
g3
g3
tp197
I5206584
sg10
(g191
g11
g12
tp198
s(g4
g4
g4
tp199
I54772
s(g4
g3
g4
tp200
I105021
ssS'\xe4\xb8\xad\xe5\xa4\xae\xe5\xa7\x94\xe5\x91\x98\xe4\xbc\x9a'
p201
(dp202
(g3
g4
g3
tp203
I248780
s(g4
g4
g3
tp204
I9576
s(g3
g3
g4
tp205
I329457
s(g3
g4
g4
tp206
I22204
s(g4
g3
g3
tp207
I25534
sg10
(g201
g11
g12
tp208
s(g4
g4
g4
tp209
I18142
s(g4
g3
g4
tp210
I9071
ssS'\xe5\x92\x8c\xe8\xb0\x90\xe7\xa4\xbe\xe4\xbc\x9a'
p211
(dp212
(g78
g79
g78
tp213
I248780
s(g79
g79
g78
tp214
I16124
s(g78
g78
g79
tp215
I329457
s(g78
g79
g79
tp216
I22204
s(g79
g78
g78
tp217
I431011
sg85
(g211
g86
g87
tp218
s(g79
g79
g79
tp219
I23842
s(g79
g78
g79
tp220
I9159
ssS'\xe4\xbd\x93\xe7\xb3\xbb'
p221
(dp222
(g3
g4
g3
tp223
I248742
s(g4
g4
g3
tp224
I55302
s(g3
g3
g4
tp225
I1709936
s(g3
g4
g4
tp226
I50665
s(g4
g3
g3
tp227
I5028738
sg10
(g221
g11
g12
tp228
s(g4
g4
g4
tp229
I49231
s(g4
g3
g4
tp230
I197517
ssS'\xe5\x86\x9b\xe9\x98\x9f'
p231
(dp232
(g3
g4
g3
tp233
I248742
s(g4
g4
g3
tp234
I43014
s(g3
g3
g4
tp235
I1709936
s(g3
g4
g4
tp236
I50665
s(g4
g3
g3
tp237
I879147
sg10
(g231
g11
g12
tp238
s(g4
g4
g4
tp239
I38137
s(g4
g3
g4
tp240
I71580
ssS'\xe6\xb7\xb1\xe5\x8c\x96'
p241
(dp242
(g3
g4
g3
tp243
I248742
s(g4
g4
g3
tp244
I52359
s(g3
g3
g4
tp245
I620251
s(g3
g4
g4
tp246
I22200
s(g4
g3
g3
tp247
I964093
sg10
(g241
g11
g12
tp248
s(g4
g4
g4
tp249
I30282
s(g4
g3
g4
tp250
I58252
ssS'\xe5\xb8\x82\xe5\x9c\xba'
p251
(dp252
(g3
g4
g3
tp253
I248742
s(g4
g4
g3
tp254
I43759
s(g3
g3
g4
tp255
I1709936
s(g3
g4
g4
tp256
I22200
s(g4
g3
g3
tp257
I15727487
sg10
(g251
g11
g12
tp258
s(g4
g4
g4
tp259
I48273
s(g4
g3
g4
tp260
I75197
ssS'\xe5\x8d\x81\xe5\x85\xad\xe5\xa4\xa7'
p261
(dp262
(g3
g4
g3
tp263
I248742
s(g4
g4
g3
tp264
I52167
s(g3
g3
g4
tp265
I1709936
s(g3
g4
g4
tp266
I50665
s(g4
g3
g3
tp267
I226193
sg10
(g261
g11
g12
tp268
s(g4
g4
g4
tp269
I30339
s(g4
g3
g4
tp270
I17195
ssS'\xe4\xbf\x83\xe8\xbf\x9b'
p271
(dp272
(g3
g4
g3
tp273
I248806
s(g4
g4
g3
tp274
I57275
s(g3
g3
g4
tp275
I620251
s(g3
g4
g4
tp276
I22200
s(g4
g3
g3
tp277
I1565263
sg10
(g271
g11
g12
tp278
s(g4
g4
g4
tp279
I45755
s(g4
g3
g4
tp280
I135788
ssS'\xe6\x94\xbf\xe6\xb2\xbb\xe6\x96\x87\xe6\x98\x8e'
p281
(dp282
(g3
g4
g3
tp283
I248742
s(g4
g4
g3
tp284
I3862
s(g3
g3
g4
tp285
I1709936
s(g3
g4
g4
tp286
I50665
s(g4
g3
g3
tp287
I96157
sg10
(g281
g11
g12
tp288
s(g4
g4
g4
tp289
I5344
s(g4
g3
g4
tp290
I3784
ssS'\xe5\x8d\x8f\xe8\xb0\x83'
p291
(dp292
(g3
g4
g3
tp293
I248780
s(g4
g4
g3
tp294
I52311
s(g3
g3
g4
tp295
I620251
s(g3
g4
g4
tp296
I22200
s(g4
g3
g3
tp297
I75921
sg10
(g291
g11
g12
tp298
s(g4
g4
g4
tp299
I54396
s(g4
g3
g4
tp300
I28532
ssS'\xe5\x85\x9a\xe7\x9a\x84\xe5\xbb\xba\xe8\xae\xbe'
p301
(dp302
(g3
g4
g3
tp303
I248742
s(g4
g4
g3
tp304
I66690
s(g3
g3
g4
tp305
I1709936
s(g3
g4
g4
tp306
I50665
s(g4
g3
g3
tp307
I156676
sg10
(g301
g11
g12
tp308
s(g4
g4
g4
tp309
I70999
s(g4
g3
g4
tp310
I82296
ssS'\xe6\x95\x99\xe8\x82\xb2'
p311
(dp312
(g3
g4
g3
tp313
I248742
s(g4
g4
g3
tp314
I31467
s(g3
g3
g4
tp315
I1709936
s(g3
g4
g4
tp316
I50665
s(g4
g3
g3
tp317
I33611636
sg10
(g311
g11
g12
tp318
s(g4
g4
g4
tp319
I27506
s(g4
g3
g4
tp320
I160190
ssS'\xe7\xbb\x8f\xe6\xb5\x8e\xe4\xbd\x93\xe5\x88\xb6'
p321
(dp322
(g3
g4
g3
tp323
I248806
s(g4
g4
g3
tp324
I7807
s(g3
g3
g4
tp325
I1710022
s(g3
g4
g4
tp326
I50665
s(g4
g3
g3
tp327
I103555
sg10
(g321
g11
g12
tp328
s(g4
g4
g4
tp329
I18299
s(g4
g3
g4
tp330
I19161
ssS'\xe6\x88\x98\xe7\x95\xa5'
p331
(dp332
(g3
g4
g3
tp333
I248742
s(g4
g4
g3
tp334
I53546
s(g3
g3
g4
tp335
I620251
s(g3
g4
g4
tp336
I22200
s(g4
g3
g3
tp337
I3325502
sg10
(g331
g11
g12
tp338
s(g4
g4
g4
tp339
I45332
s(g4
g3
g4
tp340
I60418
ssS'\xe7\x94\x9f\xe4\xba\xa7\xe5\x8a\x9b'
p341
(dp342
(g3
g4
g3
tp343
I248780
s(g4
g4
g3
tp344
I58130
s(g3
g3
g4
tp345
I620254
s(g3
g4
g4
tp346
I22204
s(g4
g3
g3
tp347
I170617
sg10
(g341
g11
g12
tp348
s(g4
g4
g4
tp349
I50512
s(g4
g3
g4
tp350
I58922
ssS'\xe4\xbc\x9f\xe5\xa4\xa7\xe6\x97\x97\xe5\xb8\x9c'
p351
(dp352
(g3
g4
g3
tp353
I248742
s(g4
g4
g3
tp354
I37078
s(g3
g3
g4
tp355
I1709936
s(g3
g4
g4
tp356
I50665
s(g4
g3
g3
tp357
I30479
sg10
(g351
g11
g12
tp358
s(g4
g4
g4
tp359
I51677
s(g4
g3
g4
tp360
I23890
ssS'\xe5\x8f\xb8\xe6\xb3\x95'
p361
(dp362
(g3
g4
g3
tp363
I248806
s(g4
g4
g3
tp364
I29890
s(g3
g3
g4
tp365
I620251
s(g3
g4
g4
tp366
I22200
s(g4
g3
g3
tp367
I1676923
sg10
(g361
g11
g12
tp368
s(g4
g4
g4
tp369
I39753
s(g4
g3
g4
tp370
I102187
ssS'\xe5\xa2\x9e\xe5\xbc\xba'
p371
(dp372
(g3
g4
g3
tp373
I248780
s(g4
g4
g3
tp374
I61541
s(g3
g3
g4
tp375
I329457
s(g3
g4
g4
tp376
I22204
s(g4
g3
g3
tp377
I617796
sg10
(g371
g11
g12
tp378
s(g4
g4
g4
tp379
I51750
s(g4
g3
g4
tp380
I172171
ssS'\xe5\x88\x9b\xe6\x96\xb0'
p381
(dp382
(g3
g4
g3
tp383
I248806
s(g4
g4
g3
tp384
I35592
s(g3
g3
g4
tp385
I620251
s(g3
g4
g4
tp386
I22200
s(g4
g3
g3
tp387
I2844488
sg10
(g381
g11
g12
tp388
s(g4
g4
g4
tp389
I25547
s(g4
g3
g4
tp390
I63679
ssS'\xe5\x90\x8c\xe5\xbf\x97'
p391
(dp392
(g3
g4
g3
tp393
I248806
s(g4
g4
g3
tp394
I45911
s(g3
g3
g4
tp395
I1709936
s(g3
g4
g4
tp396
I22200
s(g4
g3
g3
tp397
I480069
sg10
(g391
g11
g12
tp398
s(g4
g4
g4
tp399
I45127
s(g4
g3
g4
tp400
I82382
ssS'\xe8\x81\x8c\xe8\x83\xbd'
p401
(dp402
(g3
g4
g3
tp403
I248742
s(g4
g4
g3
tp404
I73866
s(g3
g3
g4
tp405
I1709936
s(g3
g4
g4
tp406
I22200
s(g4
g3
g3
tp407
I1742730
sg10
(g401
g11
g12
tp408
s(g4
g4
g4
tp409
I29354
s(g4
g3
g4
tp410
I64222
ssS'\xe5\x86\x9c\xe6\xb0\x91'
p411
(dp412
(g3
g4
g3
tp413
I248780
s(g4
g4
g3
tp414
I37436
s(g3
g3
g4
tp415
I329457
s(g3
g4
g4
tp416
I22204
s(g4
g3
g3
tp417
I2465422
sg10
(g411
g11
g12
tp418
s(g4
g4
g4
tp419
I49644
s(g4
g3
g4
tp420
I66609
ssS'\xe5\x85\xa8\xe5\x9b\xbd\xe6\x94\xbf\xe5\x8d\x8f'
p421
(dp422
(g3
g4
g3
tp423
I248806
s(g4
g4
g3
tp424
I3290
s(g3
g3
g4
tp425
I620251
s(g3
g4
g4
tp426
I22200
s(g4
g3
g3
tp427
I554455
sg10
(g421
g11
g12
tp428
s(g4
g4
g4
tp429
I16513
s(g4
g3
g4
tp430
I15395
ssS'\xe5\x8d\x81\xe5\xb1\x8a'
p431
(dp432
(g3
g4
g3
tp433
I248806
s(g4
g4
g3
tp434
I2131
s(g3
g3
g4
tp435
I620251
s(g3
g4
g4
tp436
I22200
s(g4
g3
g3
tp437
I650499
sg10
(g431
g11
g12
tp438
s(g4
g4
g4
tp439
I3574
s(g4
g3
g4
tp440
I4225
ssS'\xe5\x8a\xa0\xe5\xbc\xba'
p441
(dp442
(g3
g4
g3
tp443
I248806
s(g4
g4
g3
tp444
I56893
s(g3
g3
g4
tp445
I620251
s(g3
g4
g4
tp446
I50665
s(g4
g3
g3
tp447
I7224232
sg10
(g441
g11
g12
tp448
s(g4
g4
g4
tp449
I45752
s(g4
g3
g4
tp450
I129949
ssS'\xe9\x82\x93\xe5\xb0\x8f\xe5\xb9\xb3\xe7\x90\x86\xe8\xae\xba'
p451
(dp452
(g3
g4
g3
tp453
I248742
s(g4
g4
g3
tp454
I46737
s(g3
g3
g4
tp455
I1709936
s(g3
g4
g4
tp456
I50665
s(g4
g3
g3
tp457
I577660
sg10
(g451
g11
g12
tp458
s(g4
g4
g4
tp459
I71117
s(g4
g3
g4
tp460
I32499
ssS'\xe4\xb8\x89\xe4\xb8\xaa\xe4\xbb\xa3\xe8\xa1\xa8'
p461
(dp462
(g3
g4
g3
tp463
I248780
s(g4
g4
g3
tp464
I23200
s(g3
g3
g4
tp465
I329457
s(g3
g4
g4
tp466
I22204
s(g4
g3
g3
tp467
I162500
sg10
(g461
g11
g12
tp468
s(g4
g4
g4
tp469
I47356
s(g4
g3
g4
tp470
I20785
ssS'\xe5\x8f\x91\xe5\xb1\x95\xe8\xa7\x82'
p471
(dp472
(g3
g4
g3
tp473
I248742
s(g4
g4
g3
tp474
I55411
s(g3
g3
g4
tp475
I1709936
s(g3
g4
g4
tp476
I22200
s(g4
g3
g3
tp477
I349611
sg10
(g471
g11
g12
tp478
s(g4
g4
g4
tp479
I53065
s(g4
g3
g4
tp480
I48828
ssS'\xe4\xb9\x9d\xe5\xb1\x8a'
p481
(dp482
(g3
g4
g3
tp483
I248742
s(g4
g4
g3
tp484
I6995
s(g3
g3
g4
tp485
I1709936
s(g3
g4
g4
tp486
I22200
s(g4
g3
g3
tp487
I128247
sg10
(g481
g11
g12
tp488
s(g4
g4
g4
tp489
I11104
s(g4
g3
g4
tp490
I6109
ssS'\xe5\x8d\x81\xe4\xb8\x80\xe5\xb1\x8a'
p491
(dp492
(g3
g4
g3
tp493
I248742
s(g4
g4
g3
tp494
I26885
s(g3
g3
g4
tp495
I1709936
s(g3
g4
g4
tp496
I50665
s(g4
g3
g3
tp497
I292666
sg10
(g491
g11
g12
tp498
s(g4
g4
g4
tp499
I31327
s(g4
g3
g4
tp500
I22359
ssS'\xe5\xa7\x8b\xe7\xbb\x88'
p501
(dp502
(g3
g4
g3
tp503
I248806
s(g4
g4
g3
tp504
I25217
s(g3
g3
g4
tp505
I1709936
s(g3
g4
g4
tp506
I50665
s(g4
g3
g3
tp507
I261860
sg10
(g501
g11
g12
tp508
s(g4
g4
g4
tp509
I53889
s(g4
g3
g4
tp510
I72461
ssS'\xe7\xbb\x9f\xe7\xad\xb9'
p511
(dp512
(g3
g4
g3
tp513
I248780
s(g4
g4
g3
tp514
I59518
s(g3
g3
g4
tp515
I329457
s(g3
g4
g4
tp516
I22204
s(g4
g3
g3
tp517
I2270350
sg10
(g511
g11
g12
tp518
s(g4
g4
g4
tp519
I58942
s(g4
g3
g4
tp520
I46790
ssS'\xe7\xac\xac\xe5\x8d\x81\xe5\x85\xad\xe5\xb1\x8a'
p521
(dp522
(g3
g4
g3
tp523
I248742
s(g4
g4
g3
tp524
I18945
s(g3
g3
g4
tp525
I1709936
s(g3
g4
g4
tp526
I50665
s(g4
g3
g3
tp527
I1192645
sg10
(g521
g11
g12
tp528
s(g4
g4
g4
tp529
I11449
s(g4
g3
g4
tp530
I14806
ssS'\xe5\xbf\x85\xe9\xa1\xbb'
p531
(dp532
(g3
g4
g3
tp533
I248742
s(g4
g4
g3
tp534
I59813
s(g3
g3
g4
tp535
I1709936
s(g3
g4
g4
tp536
I50665
s(g4
g3
g3
tp537
I2237085
sg10
(g531
g11
g12
tp538
s(g4
g4
g4
tp539
I23445
s(g4
g3
g4
tp540
I100733
ssS'\xe8\xa1\x8c\xe6\x94\xbf'
p541
(dp542
(g3
g4
g3
tp543
I248806
s(g4
g4
g3
tp544
I53303
s(g3
g3
g4
tp545
I1709936
s(g3
g4
g4
tp546
I22200
s(g4
g3
g3
tp547
I2737328
sg10
(g541
g11
g12
tp548
s(g4
g4
g4
tp549
I40363
s(g4
g3
g4
tp550
I69070
ssS'\xe5\x86\x9c\xe4\xb8\x9a'
p551
(dp552
(g3
g4
g3
tp553
I248780
s(g4
g4
g3
tp554
I50910
s(g3
g3
g4
tp555
I329457
s(g3
g4
g4
tp556
I22204
s(g4
g3
g3
tp557
I1961546
sg10
(g551
g11
g12
tp558
s(g4
g4
g4
tp559
I48733
s(g4
g3
g4
tp560
I86328
ssS'\xe6\x9e\x84\xe5\xbb\xba'
p561
(dp562
(g3
g4
g3
tp563
I248806
s(g4
g4
g3
tp564
I46703
s(g3
g3
g4
tp565
I620251
s(g3
g4
g4
tp566
I22200
s(g4
g3
g3
tp567
I499394
sg10
(g561
g11
g12
tp568
s(g4
g4
g4
tp569
I54729
s(g4
g3
g4
tp570
I287683
ssS'\xe4\xbc\x81\xe4\xb8\x9a'
p571
(dp572
(g3
g4
g3
tp573
I248780
s(g4
g4
g3
tp574
I36902
s(g3
g3
g4
tp575
I329457
s(g3
g4
g4
tp576
I22204
s(g4
g3
g3
tp577
I28240067
sg10
(g571
g11
g12
tp578
s(g4
g4
g4
tp579
I39596
s(g4
g3
g4
tp580
I103530
ssS'\xe5\x86\x9c\xe6\x9d\x91'
p581
(dp582
(g3
g4
g3
tp583
I248806
s(g4
g4
g3
tp584
I47849
s(g3
g3
g4
tp585
I1709936
s(g3
g4
g4
tp586
I22200
s(g4
g3
g3
tp587
I6595498
sg10
(g581
g11
g12
tp588
s(g4
g4
g4
tp589
I29719
s(g4
g3
g4
tp590
I96457
ssS'\xe4\xba\x8b\xe4\xb8\x9a'
p591
(dp592
(g3
g4
g3
tp593
I248780
s(g4
g4
g3
tp594
I51986
s(g3
g3
g4
tp595
I329457
s(g3
g4
g4
tp596
I22204
s(g4
g3
g3
tp597
I5313916
sg10
(g591
g11
g12
tp598
s(g4
g4
g4
tp599
I36698
s(g4
g3
g4
tp600
I234150
ssS'\xe7\x89\xb9\xe8\x89\xb2'
p601
(dp602
(g3
g4
g3
tp603
I248806
s(g4
g4
g3
tp604
I57489
s(g3
g3
g4
tp605
I1709936
s(g3
g4
g4
tp606
I50665
s(g4
g3
g3
tp607
I7717089
sg10
(g601
g11
g12
tp608
s(g4
g4
g4
tp609
I46729
s(g4
g3
g4
tp610
I75709
ssS'\xe4\xba\xba\xe6\xb0\x91'
p611
(dp612
(g3
g4
g3
tp613
I248780
s(g4
g4
g3
tp614
I42517
s(g3
g3
g4
tp615
I329457
s(g3
g4
g4
tp616
I22204
s(g4
g3
g3
tp617
I3931507
sg10
(g611
g11
g12
tp618
s(g4
g4
g4
tp619
I36960
s(g4
g3
g4
tp620
I176082
ssS'\xe7\xb2\xbe\xe7\xa5\x9e'
p621
(dp622
(g3
g4
g3
tp623
I248780
s(g4
g4
g3
tp624
I48971
s(g3
g3
g4
tp625
I329457
s(g3
g4
g4
tp626
I22204
s(g4
g3
g3
tp627
I792421
sg10
(g621
g11
g12
tp628
s(g4
g4
g4
tp629
I52588
s(g4
g3
g4
tp630
I67315
ssS'\xe5\x90\x8d\xe5\x8d\x95'
p631
(dp632
(g3
g4
g3
tp633
I248742
s(g4
g4
g3
tp634
I20715
s(g3
g3
g4
tp635
I1709936
s(g3
g4
g4
tp636
I50665
s(g4
g3
g3
tp637
I7162736
sg10
(g631
g11
g12
tp638
s(g4
g4
g4
tp639
I24126
s(g4
g3
g4
tp640
I43923
ssS'\xe5\x8d\x81\xe4\xb8\x83'
p641
(dp642
(g3
g4
g3
tp643
I248742
s(g4
g4
g3
tp644
I68929
s(g3
g3
g4
tp645
I1709936
s(g3
g4
g4
tp646
I50665
s(g4
g3
g3
tp647
I467505
sg10
(g641
g11
g12
tp648
s(g4
g4
g4
tp649
I41502
s(g4
g3
g4
tp650
I68827
ssS'\xe4\xbd\x93\xe5\x88\xb6'
p651
(dp652
(g3
g4
g3
tp653
I248806
s(g4
g4
g3
tp654
I70125
s(g3
g3
g4
tp655
I1709936
s(g3
g4
g4
tp656
I50665
s(g4
g3
g3
tp657
I2847545
sg10
(g651
g11
g12
tp658
s(g4
g4
g4
tp659
I41164
s(g4
g3
g4
tp660
I181386
ssS'\xe5\x92\x8c\xe8\xb0\x90'
p661
(dp662
(g3
g4
g3
tp663
I248806
s(g4
g4
g3
tp664
I59423
s(g3
g3
g4
tp665
I1709936
s(g3
g4
g4
tp666
I50665
s(g4
g3
g3
tp667
I733697
sg10
(g661
g11
g12
tp668
s(g4
g4
g4
tp669
I59321
s(g4
g3
g4
tp670
I61462
ssS'\xe6\xb0\x91\xe4\xb8\xbb'
p671
(dp672
(g3
g4
g3
tp673
I248806
s(g4
g4
g3
tp674
I58237
s(g3
g3
g4
tp675
I620251
s(g3
g4
g4
tp676
I22200
s(g4
g3
g3
tp677
I794406
sg10
(g671
g11
g12
tp678
s(g4
g4
g4
tp679
I45052
s(g4
g3
g4
tp680
I76167
ssS'\xe6\x94\xbf\xe6\xb2\xbb'
p681
(dp682
(g3
g4
g3
tp683
I248806
s(g4
g4
g3
tp684
I60717
s(g3
g3
g4
tp685
I1709936
s(g3
g4
g4
tp686
I50708
s(g4
g3
g3
tp687
I8357035
sg10
(g681
g11
g12
tp688
s(g4
g4
g4
tp689
I32846
s(g4
g3
g4
tp690
I149487
ssS'\xe6\x96\x87\xe5\x8c\x96'
p691
(dp692
(g3
g4
g3
tp693
I248780
s(g4
g4
g3
tp694
I62123
s(g3
g3
g4
tp695
I620251
s(g3
g4
g4
tp696
I22204
s(g4
g3
g3
tp697
I1558048
sg10
(g691
g11
g12
tp698
s(g4
g4
g4
tp699
I48933
s(g4
g3
g4
tp700
I103889
ssS'\xe4\xbf\x9d\xe6\x8c\x81'
p701
(dp702
(g3
g4
g3
tp703
I248806
s(g4
g4
g3
tp704
I62214
s(g3
g3
g4
tp705
I620251
s(g3
g4
g4
tp706
I22200
s(g4
g3
g3
tp707
I494473
sg10
(g701
g11
g12
tp708
s(g4
g4
g4
tp709
I45650
s(g4
g3
g4
tp710
I71535
ssS'\xe5\xae\x9e\xe6\x96\xbd'
p711
(dp712
(g3
g4
g3
tp713
I248806
s(g4
g4
g3
tp714
I58325
s(g3
g3
g4
tp715
I620251
s(g3
g4
g4
tp716
I22200
s(g4
g3
g3
tp717
I2271948
sg10
(g711
g11
g12
tp718
s(g4
g4
g4
tp719
I41031
s(g4
g3
g4
tp720
I95066
ssS'\xe6\xb1\x9f\xe6\xb3\xbd\xe6\xb0\x91'
p721
(dp722
(g78
g79
g78
tp723
I248780
s(g79
g79
g78
tp724
I6381
s(g78
g78
g79
tp725
I309041
s(g78
g79
g79
tp726
I22204
s(g79
g78
g78
tp727
I83901
sg85
(g721
g86
g87
tp728
s(g79
g79
g79
tp729
I570
s(g79
g78
g79
tp730
I6668
ssS'\xe6\x9c\xba\xe6\x9e\x84'
p731
(dp732
(g3
g4
g3
tp733
I248742
s(g4
g4
g3
tp734
I25916
s(g3
g3
g4
tp735
I1709936
s(g3
g4
g4
tp736
I50665
s(g4
g3
g3
tp737
I2503931
sg10
(g731
g11
g12
tp738
s(g4
g4
g4
tp739
I41048
s(g4
g3
g4
tp740
I237248
ssS'\xe5\x9b\xbd\xe6\x9c\x89\xe7\xbb\x8f\xe6\xb5\x8e'
p741
(dp742
(g3
g4
g3
tp743
I248806
s(g4
g4
g3
tp744
I4485
s(g3
g3
g4
tp745
I620251
s(g3
g4
g4
tp746
I22200
s(g4
g3
g3
tp747
I347345
sg10
(g741
g11
g12
tp748
s(g4
g4
g4
tp749
I3795
s(g4
g3
g4
tp750
I2634
ssS'\xe5\xb0\x8f\xe5\xba\xb7\xe7\xa4\xbe\xe4\xbc\x9a'
p751
(dp752
(g3
g4
g3
tp753
I248742
s(g4
g4
g3
tp754
I50942
s(g3
g3
g4
tp755
I1709936
s(g3
g4
g4
tp756
I22200
s(g4
g3
g3
tp757
I125217
sg10
(g751
g11
g12
tp758
s(g4
g4
g4
tp759
I46781
s(g4
g3
g4
tp760
I34670
ssS'\xe6\x88\x91\xe5\x9b\xbd'
p761
(dp762
(g3
g4
g3
tp763
I248742
s(g4
g4
g3
tp764
I41758
s(g3
g3
g4
tp765
I1709936
s(g3
g4
g4
tp766
I50665
s(g4
g3
g3
tp767
I3621895
sg10
(g761
g11
g12
tp768
s(g4
g4
g4
tp769
I40543
s(g4
g3
g4
tp770
I503540
ssS'\xe7\xa4\xbe\xe4\xbc\x9a'
p771
(dp772
(g3
g4
g3
tp773
I248806
s(g4
g4
g3
tp774
I80116
s(g3
g3
g4
tp775
I620251
s(g3
g4
g4
tp776
I22200
s(g4
g3
g3
tp777
I2007132
sg10
(g771
g11
g12
tp778
s(g4
g4
g4
tp779
I50687
s(g4
g3
g4
tp780
I152813
ssS'\xe5\x90\x84\xe6\x97\x8f\xe4\xba\xba\xe6\xb0\x91'
p781
(dp782
(g3
g4
g3
tp783
I248806
s(g4
g4
g3
tp784
I44790
s(g3
g3
g4
tp785
I620251
s(g3
g4
g4
tp786
I22200
s(g4
g3
g3
tp787
I51327
sg10
(g781
g11
g12
tp788
s(g4
g4
g4
tp789
I60923
s(g4
g3
g4
tp790
I42627
ssS'\xe7\xa4\xbe\xe4\xbc\x9a\xe4\xb8\xbb\xe4\xb9\x89'
p791
(dp792
(g3
g4
g3
tp793
I248742
s(g4
g4
g3
tp794
I42388
s(g3
g3
g4
tp795
I1709936
s(g3
g4
g4
tp796
I50665
s(g4
g3
g3
tp797
I397526
sg10
(g791
g11
g12
tp798
s(g4
g4
g4
tp799
I64692
s(g4
g3
g4
tp800
I31341
ssS'\xe9\x87\x8d\xe7\x82\xb9'
p801
(dp802
(g3
g4
g3
tp803
I248780
s(g4
g4
g3
tp804
I48953
s(g3
g3
g4
tp805
I329457
s(g3
g4
g4
tp806
I22204
s(g4
g3
g3
tp807
I3226966
sg10
(g801
g11
g12
tp808
s(g4
g4
g4
tp809
I49546
s(g4
g3
g4
tp810
I59916
ssS'\xe5\x9f\xba\xe6\x9c\xac'
p811
(dp812
(g3
g4
g3
tp813
I248742
s(g4
g4
g3
tp814
I130016
s(g3
g3
g4
tp815
I1709936
s(g3
g4
g4
tp816
I50665
s(g4
g3
g3
tp817
I6968715
sg10
(g811
g11
g12
tp818
s(g4
g4
g4
tp819
I60023
s(g4
g3
g4
tp820
I387767
ssS'\xe5\x81\xa5\xe5\x85\xa8'
p821
(dp822
(g3
g4
g3
tp823
I248806
s(g4
g4
g3
tp824
I61709
s(g3
g3
g4
tp825
I329457
s(g3
g4
g4
tp826
I22204
s(g4
g3
g3
tp827
I725348
sg10
(g821
g11
g12
tp828
s(g4
g4
g4
tp829
I43659
s(g4
g3
g4
tp830
I47833
ssS'\xe5\x9b\xbd\xe5\xae\xb6'
p831
(dp832
(g3
g4
g3
tp833
I248742
s(g4
g4
g3
tp834
I70102
s(g3
g3
g4
tp835
I1709936
s(g3
g4
g4
tp836
I50665
s(g4
g3
g3
tp837
I93018114
sg10
(g831
g11
g12
tp838
s(g4
g4
g4
tp839
I47179
s(g4
g3
g4
tp840
I134300
ssS'\xe7\xae\xa1\xe7\x90\x86\xe4\xbd\x93\xe5\x88\xb6'
p841
(dp842
(g3
g4
g3
tp843
I248806
s(g4
g4
g3
tp844
I24918
s(g3
g3
g4
tp845
I1709936
s(g3
g4
g4
tp846
I50665
s(g4
g3
g3
tp847
I940338
sg10
(g841
g11
g12
tp848
s(g4
g4
g4
tp849
I22847
s(g4
g3
g4
tp850
I26488
ssS'\xe4\xbe\x9d\xe6\xb3\x95\xe6\xb2\xbb\xe5\x9b\xbd'
p851
(dp852
(g3
g4
g3
tp853
I248806
s(g4
g4
g3
tp854
I45983
s(g3
g3
g4
tp855
I620251
s(g3
g4
g4
tp856
I50708
s(g4
g3
g3
tp857
I186931
sg10
(g851
g11
g12
tp858
s(g4
g4
g4
tp859
I55058
s(g4
g3
g4
tp860
I42954
ssS'\xe7\xac\xac\xe5\x8d\x81\xe4\xba\x94\xe5\xb1\x8a'
p861
(dp862
(g3
g4
g3
tp863
I248780
s(g4
g4
g3
tp864
I13036
s(g3
g3
g4
tp865
I329457
s(g3
g4
g4
tp866
I22204
s(g4
g3
g3
tp867
I279124
sg10
(g861
g11
g12
tp868
s(g4
g4
g4
tp869
I3594
s(g4
g3
g4
tp870
I4255
ssS'\xe8\x83\xbd\xe5\x8a\x9b'
p871
(dp872
(g3
g4
g3
tp873
I248806
s(g4
g4
g3
tp874
I42099
s(g3
g3
g4
tp875
I620251
s(g3
g4
g4
tp876
I22200
s(g4
g3
g3
tp877
I1378363
sg10
(g871
g11
g12
tp878
s(g4
g4
g4
tp879
I49412
s(g4
g3
g4
tp880
I68919
ssS'\xe5\xb7\xa5\xe4\xbd\x9c'
p881
(dp882
(g3
g4
g3
tp883
I248806
s(g4
g4
g3
tp884
I53393
s(g3
g3
g4
tp885
I620251
s(g3
g4
g4
tp886
I22200
s(g4
g3
g3
tp887
I29160664
sg10
(g881
g11
g12
tp888
s(g4
g4
g4
tp889
I43527
s(g4
g3
g4
tp890
I247950
ssS'\xe4\xb9\xa0\xe8\xbf\x91\xe5\xb9\xb3'
p891
(dp892
(g3
g4
g3
tp893
I248780
s(g4
g4
g3
tp894
I9202
s(g3
g3
g4
tp895
I329457
s(g3
g4
g4
tp896
I22204
s(g4
g3
g3
tp897
I563523
sg10
(g891
g11
g12
tp898
s(g4
g4
g4
tp899
I8725
s(g4
g3
g4
tp900
I8194
ssS'\xe6\xb3\x95\xe5\xbe\x8b'
p901
(dp902
(g3
g4
g3
tp903
I248742
s(g4
g4
g3
tp904
I55808
s(g3
g3
g4
tp905
I1709936
s(g3
g4
g4
tp906
I50665
s(g4
g3
g3
tp907
I11378445
sg10
(g901
g11
g12
tp908
s(g4
g4
g4
tp909
I44607
s(g4
g3
g4
tp910
I239604
ssS'\xe5\x85\x9a\xe7\x9a\x84\xe9\xa2\x86\xe5\xaf\xbc'
p911
(dp912
(g3
g4
g3
tp913
I248742
s(g4
g4
g3
tp914
I59593
s(g3
g3
g4
tp915
I1709936
s(g3
g4
g4
tp916
I50665
s(g4
g3
g3
tp917
I161501
sg10
(g911
g11
g12
tp918
s(g4
g4
g4
tp919
I55458
s(g4
g3
g4
tp920
I65596
ssS'\xe6\x96\x87\xe5\x8c\x96\xe4\xba\xa7\xe4\xb8\x9a'
p921
(dp922
(g3
g4
g3
tp923
I248780
s(g4
g4
g3
tp924
I8834
s(g3
g3
g4
tp925
I329457
s(g3
g4
g4
tp926
I22204
s(g4
g3
g3
tp927
I90380
sg10
(g921
g11
g12
tp928
s(g4
g4
g4
tp929
I6687
s(g4
g3
g4
tp930
I1934
ssS'\xe5\x8d\x81\xe4\xba\x8c\xe5\xb1\x8a'
p931
(dp932
(g3
g4
g3
tp933
I248780
s(g4
g4
g3
tp934
I15575
s(g3
g3
g4
tp935
I329457
s(g3
g4
g4
tp936
I22204
s(g4
g3
g3
tp937
I158639
sg10
(g931
g11
g12
tp938
s(g4
g4
g4
tp939
I14207
s(g4
g3
g4
tp940
I13647
ssS'\xe5\x8d\x81\xe5\x85\xab'
p941
(dp942
(g3
g4
g3
tp943
I248780
s(g4
g4
g3
tp944
I61761
s(g3
g3
g4
tp945
I329457
s(g3
g4
g4
tp946
I22204
s(g4
g3
g3
tp947
I538032
sg10
(g941
g11
g12
tp948
s(g4
g4
g4
tp949
I47614
s(g4
g3
g4
tp950
I62848
ssS'\xe7\xa7\x91\xe5\xad\xa6'
p951
(dp952
(g3
g4
g3
tp953
I248806
s(g4
g4
g3
tp954
I66109
s(g3
g3
g4
tp955
I1709936
s(g3
g4
g4
tp956
I50665
s(g4
g3
g3
tp957
I65043279
sg10
(g951
g11
g12
tp958
s(g4
g4
g4
tp959
I51758
s(g4
g3
g4
tp960
I117357
ssS'\xe5\xbb\xba\xe8\xae\xbe'
p961
(dp962
(g3
g4
g3
tp963
I248780
s(g4
g4
g3
tp964
I72008
s(g3
g3
g4
tp965
I329457
s(g3
g4
g4
tp966
I22204
s(g4
g3
g3
tp967
I9697644
sg10
(g961
g11
g12
tp968
s(g4
g4
g4
tp969
I56930
s(g4
g3
g4
tp970
I339729
ssS'\xe7\xbb\x8f\xe6\xb5\x8e\xe7\xa4\xbe\xe4\xbc\x9a'
p971
(dp972
(g3
g4
g3
tp973
I248806
s(g4
g4
g3
tp974
I15286
s(g3
g3
g4
tp975
I620251
s(g3
g4
g4
tp976
I22200
s(g4
g3
g3
tp977
I99453
sg10
(g971
g11
g12
tp978
s(g4
g4
g4
tp979
I31280
s(g4
g3
g4
tp980
I10593
ssS'\xe7\xac\xac\xe5\x8d\x81\xe5\x85\xab\xe5\xb1\x8a'
p981
(dp982
(g3
g4
g3
tp983
I248806
s(g4
g4
g3
tp984
I16702
s(g3
g3
g4
tp985
I620251
s(g3
g4
g4
tp986
I22204
s(g4
g3
g3
tp987
I70774
sg10
(g981
g11
g12
tp988
s(g4
g4
g4
tp989
I11230
s(g4
g3
g4
tp990
I10587
ssS'\xe6\xb7\xb1\xe5\x8c\x96\xe6\x94\xb9\xe9\x9d\xa9'
p991
(dp992
(g3
g4
g3
tp993
I248742
s(g4
g4
g3
tp994
I24605
s(g3
g3
g4
tp995
I1709936
s(g3
g4
g4
tp996
I50665
s(g4
g3
g3
tp997
I856820
sg10
(g991
g11
g12
tp998
s(g4
g4
g4
tp999
I32573
s(g4
g3
g4
tp1000
I25690
ssS'\xe4\xb8\x8d\xe6\x96\xad'
p1001
(dp1002
(g3
g4
g3
tp1003
I248742
s(g4
g4
g3
tp1004
I64080
s(g3
g3
g4
tp1005
I1709936
s(g3
g4
g4
tp1006
I50665
s(g4
g3
g3
tp1007
I1648281
sg10
(g1001
g11
g12
tp1008
s(g4
g4
g4
tp1009
I57157
s(g4
g3
g4
tp1010
I73765
ssS'\xe5\x9b\xbd\xe6\x9c\x89\xe4\xbc\x81\xe4\xb8\x9a'
p1011
(dp1012
(g3
g4
g3
tp1013
I248806
s(g4
g4
g3
tp1014
I34446
s(g3
g3
g4
tp1015
I620251
s(g3
g4
g4
tp1016
I22200
s(g4
g3
g3
tp1017
I879709
sg10
(g1011
g11
g12
tp1018
s(g4
g4
g4
tp1019
I25690
s(g4
g3
g4
tp1020
I62317
ssS'\xe5\x85\x9a\xe5\x86\x85'
p1021
(dp1022
(g3
g4
g3
tp1023
I248742
s(g4
g4
g3
tp1024
I17876
s(g3
g3
g4
tp1025
I1709936
s(g3
g4
g4
tp1026
I50665
s(g4
g3
g3
tp1027
I158865
sg10
(g1021
g11
g12
tp1028
s(g4
g4
g4
tp1029
I41755
s(g4
g3
g4
tp1030
I38584
ssS'\xe5\xb9\xb2\xe9\x83\xa8'
p1031
(dp1032
(g3
g4
g3
tp1033
I248806
s(g4
g4
g3
tp1034
I66758
s(g3
g3
g4
tp1035
I1709936
s(g3
g4
g4
tp1036
I50665
s(g4
g3
g3
tp1037
I3239682
sg10
(g1031
g11
g12
tp1038
s(g4
g4
g4
tp1039
I43715
s(g4
g3
g4
tp1040
I168694
ssS'\xe5\x88\xb6\xe5\xba\xa6'
p1041
(dp1042
(g3
g4
g3
tp1043
I248780
s(g4
g4
g3
tp1044
I25456
s(g3
g3
g4
tp1045
I329457
s(g3
g4
g4
tp1046
I22204
s(g4
g3
g3
tp1047
I1381048
sg10
(g1041
g11
g12
tp1048
s(g4
g4
g4
tp1049
I26994
s(g4
g3
g4
tp1050
I129443
ssS'\xe4\xbd\x9c\xe9\xa3\x8e'
p1051
(dp1052
(g3
g4
g3
tp1053
I248780
s(g4
g4
g3
tp1054
I62543
s(g3
g3
g4
tp1055
I329457
s(g3
g4
g4
tp1056
I22204
s(g4
g3
g3
tp1057
I3266528
sg10
(g1051
g11
g12
tp1058
s(g4
g4
g4
tp1059
I46090
s(g4
g3
g4
tp1060
I66891
ssS'\xe7\xbb\x93\xe5\x90\x88'
p1061
(dp1062
(g3
g4
g3
tp1063
I248780
s(g4
g4
g3
tp1064
I60406
s(g3
g3
g4
tp1065
I329457
s(g3
g4
g4
tp1066
I22204
s(g4
g3
g3
tp1067
I4434400
sg10
(g1061
g11
g12
tp1068
s(g4
g4
g4
tp1069
I45104
s(g4
g3
g4
tp1070
I69605
ssS'\xe5\x8d\x81\xe4\xb8\x80\xe4\xba\x94'
p1071
(dp1072
(g3
g4
g3
tp1073
I248806
s(g4
g4
g3
tp1074
I4899
s(g3
g3
g4
tp1075
I620251
s(g3
g4
g4
tp1076
I50665
s(g4
g3
g3
tp1077
I146236
sg10
(g1071
g11
g12
tp1078
s(g4
g4
g4
tp1079
I3945
s(g4
g3
g4
tp1080
I1110
ssS'\xe5\x9b\xbd\xe5\x8a\xa1\xe9\x99\xa2'
p1081
(dp1082
(g3
g4
g3
tp1083
I248742
s(g4
g4
g3
tp1084
I23542
s(g3
g3
g4
tp1085
I1709936
s(g3
g4
g4
tp1086
I50665
s(g4
g3
g3
tp1087
I522824
sg10
(g1081
g11
g12
tp1088
s(g4
g4
g4
tp1089
I40830
s(g4
g3
g4
tp1090
I39691
ssS'\xe4\xbc\x9a\xe8\xae\xae'
p1091
(dp1092
(g3
g4
g3
tp1093
I248742
s(g4
g4
g3
tp1094
I45094
s(g3
g3
g4
tp1095
I1710022
s(g3
g4
g4
tp1096
I50665
s(g4
g3
g3
tp1097
I10075398
sg10
(g1091
g11
g12
tp1098
s(g4
g4
g4
tp1099
I33786
s(g4
g3
g4
tp1100
I172296
ssS'\xe8\xb4\xaf\xe5\xbd\xbb'
p1101
(dp1102
(g3
g4
g3
tp1103
I248780
s(g4
g4
g3
tp1104
I55422
s(g3
g3
g4
tp1105
I329457
s(g3
g4
g4
tp1106
I22204
s(g4
g3
g3
tp1107
I302389
sg10
(g1101
g11
g12
tp1108
s(g4
g4
g4
tp1109
I36776
s(g4
g3
g4
tp1110
I41602
ssS'\xe5\x85\xa8\xe4\xbc\x9a'
p1111
(dp1112
(g3
g4
g3
tp1113
I248806
s(g4
g4
g3
tp1114
I22336
s(g3
g3
g4
tp1115
I620251
s(g3
g4
g4
tp1116
I22200
s(g4
g3
g3
tp1117
I534567
sg10
(g1111
g11
g12
tp1118
s(g4
g4
g4
tp1119
I34559
s(g4
g3
g4
tp1120
I57583
ssS'\xe7\xab\x8b\xe6\xb3\x95'
p1121
(dp1122
(g3
g4
g3
tp1123
I248780
s(g4
g4
g3
tp1124
I51261
s(g3
g3
g4
tp1125
I329457
s(g3
g4
g4
tp1126
I22204
s(g4
g3
g3
tp1127
I284039
sg10
(g1121
g11
g12
tp1128
s(g4
g4
g4
tp1129
I23091
s(g4
g3
g4
tp1130
I55555
ssS'\xe6\x8e\xa8\xe8\xbf\x9b'
p1131
(dp1132
(g3
g4
g3
tp1133
I248806
s(g4
g4
g3
tp1134
I22638
s(g3
g3
g4
tp1135
I620251
s(g3
g4
g4
tp1136
I22200
s(g4
g3
g3
tp1137
I4104033
sg10
(g1131
g11
g12
tp1138
s(g4
g4
g4
tp1139
I47156
s(g4
g3
g4
tp1140
I125703
ssS'\xe9\xa2\x86\xe5\xaf\xbc\xe4\xba\xba\xe5\x91\x98'
p1141
(dp1142
(g3
g4
g3
tp1143
I248806
s(g4
g4
g3
tp1144
I1657
s(g3
g3
g4
tp1145
I329457
s(g3
g4
g4
tp1146
I22204
s(g4
g3
g3
tp1147
I8348
sg10
(g1141
g11
g12
tp1148
s(g4
g4
g4
tp1149
I4514
s(g4
g3
g4
tp1150
I7715
ssS'\xe9\x9d\x9e\xe5\x85\xac\xe6\x9c\x89\xe5\x88\xb6'
p1151
(dp1152
(g3
g4
g3
tp1153
I248742
s(g4
g4
g3
tp1154
I31145
s(g3
g3
g4
tp1155
I620251
s(g3
g4
g4
tp1156
I22200
s(g4
g3
g3
tp1157
I197515
sg10
(g1151
g11
g12
tp1158
s(g4
g4
g4
tp1159
I48490
s(g4
g3
g4
tp1160
I28400
ssS'\xe4\xb8\xad\xe5\x9b\xbd\xe5\x85\xb1\xe4\xba\xa7\xe5\x85\x9a'
p1161
(dp1162
(g3
g4
g3
tp1163
I248806
s(g4
g4
g3
tp1164
I21484
s(g3
g3
g4
tp1165
I620251
s(g3
g4
g4
tp1166
I22200
s(g4
g3
g3
tp1167
I541060
sg10
(g1161
g11
g12
tp1168
s(g4
g4
g4
tp1169
I45922
s(g4
g3
g4
tp1170
I75764
ssS'\xe6\x89\xa7\xe6\x94\xbf'
p1171
(dp1172
(g3
g4
g3
tp1173
I248742
s(g4
g4
g3
tp1174
I59443
s(g3
g3
g4
tp1175
I620251
s(g3
g4
g4
tp1176
I22200
s(g4
g3
g3
tp1177
I929038
sg10
(g1171
g11
g12
tp1178
s(g4
g4
g4
tp1179
I20254
s(g4
g3
g4
tp1180
I38309
ssS'\xe5\x9d\x9a\xe6\x8c\x81'
p1181
(dp1182
(g3
g4
g3
tp1183
I248742
s(g4
g4
g3
tp1184
I51874
s(g3
g3
g4
tp1185
I1709936
s(g3
g4
g4
tp1186
I50708
s(g4
g3
g3
tp1187
I2745405
sg10
(g1181
g11
g12
tp1188
s(g4
g4
g4
tp1189
I33502
s(g4
g3
g4
tp1190
I73523
ssS'\xe5\x85\xa8\xe5\x85\x9a\xe5\x85\xa8\xe5\x9b\xbd'
p1191
(dp1192
(g3
g4
g3
tp1193
I248742
s(g4
g4
g3
tp1194
I12347
s(g3
g3
g4
tp1195
I1709936
s(g3
g4
g4
tp1196
I50665
s(g4
g3
g3
tp1197
I20445
sg10
(g1191
g11
g12
tp1198
s(g4
g4
g4
tp1199
I38262
s(g4
g3
g4
tp1200
I18819
ssS'\xe6\x8f\x90\xe9\xab\x98'
p1201
(dp1202
(g3
g4
g3
tp1203
I248780
s(g4
g4
g3
tp1204
I59921
s(g3
g3
g4
tp1205
I620251
s(g3
g4
g4
tp1206
I22204
s(g4
g3
g3
tp1207
I200579
sg10
(g1201
g11
g12
tp1208
s(g4
g4
g4
tp1209
I30617
s(g4
g3
g4
tp1210
I170325
ssS'\xe5\xae\xa1\xe8\xae\xae'
p1211
(dp1212
(g3
g4
g3
tp1213
I248806
s(g4
g4
g3
tp1214
I58178
s(g3
g3
g4
tp1215
I620254
s(g3
g4
g4
tp1216
I22200
s(g4
g3
g3
tp1217
I2300398
sg10
(g1211
g11
g12
tp1218
s(g4
g4
g4
tp1219
I30758
s(g4
g3
g4
tp1220
I42125
ssS'\xe6\x94\xb9\xe8\xbf\x9b'
p1221
(dp1222
(g3
g4
g3
tp1223
I248780
s(g4
g4
g3
tp1224
I60794
s(g3
g3
g4
tp1225
I329457
s(g3
g4
g4
tp1226
I22204
s(g4
g3
g3
tp1227
I1153047
sg10
(g1221
g11
g12
tp1228
s(g4
g4
g4
tp1229
I51429
s(g4
g3
g4
tp1230
I35943
ssS'\xe5\xae\x8c\xe5\x96\x84'
p1231
(dp1232
(g3
g4
g3
tp1233
I248806
s(g4
g4
g3
tp1234
I43150
s(g3
g3
g4
tp1235
I1709936
s(g3
g4
g4
tp1236
I50665
s(g4
g3
g3
tp1237
I1282611
sg10
(g1231
g11
g12
tp1238
s(g4
g4
g4
tp1239
I51654
s(g4
g3
g4
tp1240
I70798
ssS'\xe4\xbb\xb7\xe5\x80\xbc\xe4\xbd\x93\xe7\xb3\xbb'
p1241
(dp1242
(g3
g4
g3
tp1243
I248742
s(g4
g4
g3
tp1244
I8343
s(g3
g3
g4
tp1245
I1709936
s(g3
g4
g4
tp1246
I50665
s(g4
g3
g3
tp1247
I138105
sg10
(g1241
g11
g12
tp1248
s(g4
g4
g4
tp1249
I21896
s(g4
g3
g4
tp1250
I6293
ssS'\xe5\xae\x9e\xe7\x8e\xb0'
p1251
(dp1252
(g3
g4
g3
tp1253
I248806
s(g4
g4
g3
tp1254
I22511
s(g3
g3
g4
tp1255
I620251
s(g3
g4
g4
tp1256
I22200
s(g4
g3
g3
tp1257
I3875949
sg10
(g1251
g11
g12
tp1258
s(g4
g4
g4
tp1259
I50343
s(g4
g3
g4
tp1260
I39527
ssS'\xe5\x85\xa8\xe9\x9d\xa2'
p1261
(dp1262
(g3
g4
g3
tp1263
I248742
s(g4
g4
g3
tp1264
I26352
s(g3
g3
g4
tp1265
I620251
s(g3
g4
g4
tp1266
I22204
s(g4
g3
g3
tp1267
I4825667
sg10
(g1261
g11
g12
tp1268
s(g4
g4
g4
tp1269
I50182
s(g4
g3
g4
tp1270
I61028
ssS'\xe5\x9b\xbd\xe6\xb0\x91\xe7\xbb\x8f\xe6\xb5\x8e'
p1271
(dp1272
(g3
g4
g3
tp1273
I248742
s(g4
g4
g3
tp1274
I22656
s(g3
g3
g4
tp1275
I1709936
s(g3
g4
g4
tp1276
I50665
s(g4
g3
g3
tp1277
I490476
sg10
(g1271
g11
g12
tp1278
s(g4
g4
g4
tp1279
I33888
s(g4
g3
g4
tp1280
I22817
ssS'\xe5\xb9\xb2\xe9\x83\xa8\xe9\x98\x9f\xe4\xbc\x8d'
p1281
(dp1282
(g3
g4
g3
tp1283
I248742
s(g4
g4
g3
tp1284
I25358
s(g3
g3
g4
tp1285
I1709936
s(g3
g4
g4
tp1286
I50665
s(g4
g3
g3
tp1287
I41740
sg10
(g1281
g11
g12
tp1288
s(g4
g4
g4
tp1289
I42875
s(g4
g3
g4
tp1290
I21325
ssS'\xe9\xa2\x86\xe5\xaf\xbc'
p1291
(dp1292
(g78
g79
g78
tp1293
I248780
s(g79
g79
g78
tp1294
I60893
s(g78
g78
g79
tp1295
I329457
s(g78
g79
g79
tp1296
I22204
s(g79
g78
g78
tp1297
I526959
sg85
(g1291
g86
g87
tp1298
s(g79
g79
g79
tp1299
I45599
s(g79
g78
g79
tp1300
I264530
ssS'\xe7\xbb\x8f\xe6\xb5\x8e'
p1301
(dp1302
(g3
g4
g3
tp1303
I248780
s(g4
g4
g3
tp1304
I31697
s(g3
g3
g4
tp1305
I329457
s(g3
g4
g4
tp1306
I22204
s(g4
g3
g3
tp1307
I46910367
sg10
(g1301
g11
g12
tp1308
s(g4
g4
g4
tp1309
I39940
s(g4
g3
g4
tp1310
I132919
ssS'\xe9\x87\x8d\xe8\xa6\x81'
p1311
(dp1312
(g3
g4
g3
tp1313
I248780
s(g4
g4
g3
tp1314
I63932
s(g3
g3
g4
tp1315
I329457
s(g3
g4
g4
tp1316
I22204
s(g4
g3
g3
tp1317
I357487
sg10
(g1311
g11
g12
tp1318
s(g4
g4
g4
tp1319
I45817
s(g4
g3
g4
tp1320
I119843
ssS'\xe9\xa9\xac\xe5\x85\x8b\xe6\x80\x9d\xe4\xb8\xbb\xe4\xb9\x89'
p1321
(dp1322
(g3
g4
g3
tp1323
I248780
s(g4
g4
g3
tp1324
I49540
s(g3
g3
g4
tp1325
I329457
s(g3
g4
g4
tp1326
I22204
s(g4
g3
g3
tp1327
I57856
sg10
(g1321
g11
g12
tp1328
s(g4
g4
g4
tp1329
I65013
s(g4
g3
g4
tp1330
I15547
ssS'\xe5\x85\xac\xe5\xb9\xb3\xe6\xad\xa3\xe4\xb9\x89'
p1331
(dp1332
(g3
g4
g3
tp1333
I248780
s(g4
g4
g3
tp1334
I60827
s(g3
g3
g4
tp1335
I620251
s(g3
g4
g4
tp1336
I22204
s(g4
g3
g3
tp1337
I187623
sg10
(g1331
g11
g12
tp1338
s(g4
g4
g4
tp1339
I51413
s(g4
g3
g4
tp1340
I48853
ssS'\xe4\xb8\xad\xe5\xa4\xae\xe6\x94\xbf\xe6\xb2\xbb\xe5\xb1\x80'
p1341
(dp1342
(g3
g4
g3
tp1343
I248742
s(g4
g4
g3
tp1344
I32551
s(g3
g3
g4
tp1345
I1709936
s(g3
g4
g4
tp1346
I50665
s(g4
g3
g3
tp1347
I208006
sg10
(g1341
g11
g12
tp1348
s(g4
g4
g4
tp1349
I53350
s(g4
g3
g4
tp1350
I23416
ssS'\xe5\x85\xac\xe6\x9c\x89\xe5\x88\xb6'
p1351
(dp1352
(g3
g4
g3
tp1353
I248742
s(g4
g4
g3
tp1354
I48835
s(g3
g3
g4
tp1355
I1709936
s(g3
g4
g4
tp1356
I50665
s(g4
g3
g3
tp1357
I393065
sg10
(g1351
g11
g12
tp1358
s(g4
g4
g4
tp1359
I50134
s(g4
g3
g4
tp1360
I56025
ssS'\xe5\x8f\x8d\xe5\xaf\xb9'
p1361
(dp1362
(g3
g4
g3
tp1363
I248780
s(g4
g4
g3
tp1364
I54771
s(g3
g3
g4
tp1365
I329457
s(g3
g4
g4
tp1366
I22204
s(g4
g3
g3
tp1367
I1908758
sg10
(g1361
g11
g12
tp1368
s(g4
g4
g4
tp1369
I37591
s(g4
g3
g4
tp1370
I428582
ssS'\xe5\x8d\x81\xe4\xba\x94\xe5\xa4\xa7'
p1371
(dp1372
(g3
g4
g3
tp1373
I248742
s(g4
g4
g3
tp1374
I3577
s(g3
g3
g4
tp1375
I1709936
s(g3
g4
g4
tp1376
I50665
s(g4
g3
g3
tp1377
I49288
sg10
(g1371
g11
g12
tp1378
s(g4
g4
g4
tp1379
I8588
s(g4
g3
g4
tp1380
I4117
ssS'\xe4\xb9\x9d\xe5\xb1\x8a\xe5\x85\xa8\xe5\x9b\xbd\xe4\xba\xba\xe5\xa4\xa7'
p1381
(dp1382
(g3
g4
g3
tp1383
I248806
s(g4
g4
g3
tp1384
I3182
s(g3
g3
g4
tp1385
I620251
s(g3
g4
g4
tp1386
I22200
s(g4
g3
g3
tp1387
I23305
sg10
(g1381
g11
g12
tp1388
s(g4
g4
g4
tp1389
I2398
s(g4
g3
g4
tp1390
I14063
ssS'\xe8\xbd\xac\xe5\x8f\x98'
p1391
(dp1392
(g3
g4
g3
tp1393
I248742
s(g4
g4
g3
tp1394
I73047
s(g3
g3
g4
tp1395
I1709936
s(g3
g4
g4
tp1396
I50665
s(g4
g3
g3
tp1397
I2000540
sg10
(g1391
g11
g12
tp1398
s(g4
g4
g4
tp1399
I39797
s(g4
g3
g4
tp1400
I34878
ssS'\xe4\xbd\x93\xe5\x88\xb6\xe6\x94\xb9\xe9\x9d\xa9'
p1401
(dp1402
(g3
g4
g3
tp1403
I248742
s(g4
g4
g3
tp1404
I27642
s(g3
g3
g4
tp1405
I1709936
s(g3
g4
g4
tp1406
I50665
s(g4
g3
g3
tp1407
I7511153
sg10
(g1401
g11
g12
tp1408
s(g4
g4
g4
tp1409
I38911
s(g4
g3
g4
tp1410
I39224
ssS'\xe6\xb3\x95\xe6\xb2\xbb'
p1411
(dp1412
(g3
g4
g3
tp1413
I248806
s(g4
g4
g3
tp1414
I60145
s(g3
g3
g4
tp1415
I620251
s(g3
g4
g4
tp1416
I22200
s(g4
g3
g3
tp1417
I846356
sg10
(g1411
g11
g12
tp1418
s(g4
g4
g4
tp1419
I38872
s(g4
g3
g4
tp1420
I87232
ssS'\xe5\x8f\x91\xe5\xb1\x95'
p1421
(dp1422
(g3
g4
g3
tp1423
I248780
s(g4
g4
g3
tp1424
I34459
s(g3
g3
g4
tp1425
I329457
s(g3
g4
g4
tp1426
I22204
s(g4
g3
g3
tp1427
I1344741
sg10
(g1421
g11
g12
tp1428
s(g4
g4
g4
tp1429
I25427
s(g4
g3
g4
tp1430
I81378
ssS'\xe6\x8a\x97\xe7\x81\xbe\xe6\x95\x91\xe7\x81\xbe'
p1431
(dp1432
(g3
g4
g3
tp1433
I248742
s(g4
g4
g3
tp1434
I32507
s(g3
g3
g4
tp1435
I1709936
s(g3
g4
g4
tp1436
I50665
s(g4
g3
g3
tp1437
I348732
sg10
(g1431
g11
g12
tp1438
s(g4
g4
g4
tp1439
I5719
s(g4
g3
g4
tp1440
I24805
ss.