(dp0
S'\xe4\xbe\x9d\xe6\xb3\x95'
p1
(dp2
(S'?'
p3
S'+'
p4
g3
tp5
I4867703
s(g4
g4
g3
tp6
I72774
s(g3
g3
g4
tp7
I17709133
s(g3
g4
g4
tp8
I927746
s(g4
g3
g3
tp9
I526895
sS'words'
p10
(g1
S'\xe7\xbb\x9f\xe8\xae\xa1'
p11
S'\xe5\x88\x86\xe6\x9e\x90'
p12
tp13
s(g4
g4
g4
tp14
I48817
s(g4
g3
g4
tp15
I74969
ssS'\xe8\xae\xb8\xe8\xbf\x90\xe9\xb8\xbf'
p16
(dp17
(S'?'
p18
S'+'
p19
g18
tp20
I4962900
s(g19
g19
g18
tp21
I6824
s(g18
g18
g19
tp22
I17577563
s(g18
g19
g19
tp23
I932118
s(g19
g18
g18
tp24
I24164
sS'words'
p25
(g16
S'\xe7\xbb\x9f\xe8\xae\xa1'
p26
S'\xe5\x88\x86\xe6\x9e\x90'
p27
tp28
s(g19
g19
g19
tp29
I2087
s(g19
g18
g19
tp30
I6568
ssS'\xe7\xbb\x8f\xe8\x90\xa5\xe7\xae\xa1\xe7\x90\x86\xe8\x80\x85'
p31
(dp32
(g18
g19
g18
tp33
I4963373
s(g19
g19
g18
tp34
I7638
s(g18
g18
g19
tp35
I18499080
s(g18
g19
g19
tp36
I1380407
s(g19
g18
g18
tp37
I163571
sg25
(g31
g26
g27
tp38
s(g19
g19
g19
tp39
I34269
s(g19
g18
g19
tp40
I71697
ssS'\xe5\x85\xa8\xe5\x85\x9a'
p41
(dp42
(g3
g4
g3
tp43
I4867703
s(g4
g4
g3
tp44
I46674
s(g3
g3
g4
tp45
I17709133
s(g3
g4
g4
tp46
I927746
s(g4
g3
g3
tp47
I109885
sg10
(g41
g11
g12
tp48
s(g4
g4
g4
tp49
I37207
s(g4
g3
g4
tp50
I59160
ssS'\xe7\xac\xac\xe5\x8d\x81\xe5\x85\xad\xe6\xac\xa1'
p51
(dp52
(g3
g4
g3
tp53
I4867703
s(g4
g4
g3
tp54
I2756
s(g3
g3
g4
tp55
I17709133
s(g3
g4
g4
tp56
I927746
s(g4
g3
g3
tp57
I38807
sg10
(g51
g11
g12
tp58
s(g4
g4
g4
tp59
I1329
s(g4
g3
g4
tp60
I2886
ssS'\xe5\xb8\x82\xe5\x9c\xba'
p61
(dp62
(g18
g19
g18
tp63
I4962900
s(g19
g19
g18
tp64
I647155
s(g18
g18
g19
tp65
I17577562
s(g18
g19
g19
tp66
I932190
s(g19
g18
g18
tp67
I33217440
sg25
(g61
g26
g27
tp68
s(g19
g19
g19
tp69
I156176
s(g19
g18
g19
tp70
I1360204
ssS'\xe5\xb0\xb1\xe4\xb8\x9a'
p71
(dp72
(g3
g4
g3
tp73
I4867703
s(g4
g4
g3
tp74
I101075
s(g3
g3
g4
tp75
I17709137
s(g3
g4
g4
tp76
I927746
s(g4
g3
g3
tp77
I4888424
sg10
(g71
g11
g12
tp78
s(g4
g4
g4
tp79
I48028
s(g4
g3
g4
tp80
I745484
ssS'\xe5\x85\xa8\xe5\x9b\xbd\xe4\xba\xba\xe5\xa4\xa7'
p81
(dp82
(g3
g4
g3
tp83
I4867715
s(g4
g4
g3
tp84
I31980
s(g3
g3
g4
tp85
I17709133
s(g3
g4
g4
tp86
I927751
s(g4
g3
g3
tp87
I583280
sg10
(g81
g11
g12
tp88
s(g4
g4
g4
tp89
I59269
s(g4
g3
g4
tp90
I85645
ssS'\xe5\x88\xb6\xe5\xba\xa6'
p91
(dp92
(g3
g4
g3
tp93
I4867703
s(g4
g4
g3
tp94
I310151
s(g3
g3
g4
tp95
I17709133
s(g3
g4
g4
tp96
I927746
s(g4
g3
g3
tp97
I2019528
sg10
(g91
g11
g12
tp98
s(g4
g4
g4
tp99
I108745
s(g4
g3
g4
tp100
I1927966
ssS'\xe6\x96\xb9\xe5\xbc\x8f'
p101
(dp102
(g3
g4
g3
tp103
I4867703
s(g4
g4
g3
tp104
I934352
s(g3
g3
g4
tp105
I17709137
s(g3
g4
g4
tp106
I927746
s(g4
g3
g3
tp107
I2112726
sg10
(g101
g11
g12
tp108
s(g4
g4
g4
tp109
I171024
s(g4
g3
g4
tp110
I947485
ssS'\xe6\x94\xb9\xe9\x9d\xa9'
p111
(dp112
(g3
g4
g3
tp113
I4867703
s(g4
g4
g3
tp114
I149803
s(g3
g3
g4
tp115
I17709133
s(g3
g4
g4
tp116
I927746
s(g4
g3
g3
tp117
I5154745
sg10
(g111
g11
g12
tp118
s(g4
g4
g4
tp119
I69441
s(g4
g3
g4
tp120
I277218
ssS'\xe7\xbe\xa4\xe4\xbc\x97'
p121
(dp122
(g3
g4
g3
tp123
I4867703
s(g4
g4
g3
tp124
I70802
s(g3
g3
g4
tp125
I17709133
s(g3
g4
g4
tp126
I927746
s(g4
g3
g3
tp127
I1774659
sg10
(g121
g11
g12
tp128
s(g4
g4
g4
tp129
I55903
s(g4
g3
g4
tp130
I98175
ssS'\xe4\xb8\x80\xe6\xac\xa1'
p131
(dp132
(g3
g4
g3
tp133
I4867703
s(g4
g4
g3
tp134
I116049
s(g3
g3
g4
tp135
I17709137
s(g3
g4
g4
tp136
I927746
s(g4
g3
g3
tp137
I14075849
sg10
(g131
g11
g12
tp138
s(g4
g4
g4
tp139
I86750
s(g4
g3
g4
tp140
I509139
ssS'\xe7\xb9\x81\xe8\x8d\xa3'
p141
(dp142
(g3
g4
g3
tp143
I4867703
s(g4
g4
g3
tp144
I65344
s(g3
g3
g4
tp145
I17709133
s(g3
g4
g4
tp146
I927746
s(g4
g3
g3
tp147
I207759
sg10
(g141
g11
g12
tp148
s(g4
g4
g4
tp149
I20491
s(g4
g3
g4
tp150
I72230
ssS'\xe5\x9f\x8e\xe4\xb9\xa1'
p151
(dp152
(g3
g4
g3
tp153
I4867703
s(g4
g4
g3
tp154
I80307
s(g3
g3
g4
tp155
I17709133
s(g3
g4
g4
tp156
I927746
s(g4
g3
g3
tp157
I1230298
sg10
(g151
g11
g12
tp158
s(g4
g4
g4
tp159
I51099
s(g4
g3
g4
tp160
I117623
ssS'\xe6\x80\x9d\xe6\x83\xb3'
p161
(dp162
(g3
g4
g3
tp163
I4867703
s(g4
g4
g3
tp164
I83631
s(g3
g3
g4
tp165
I17709133
s(g3
g4
g4
tp166
I927746
s(g4
g3
g3
tp167
I5881070
sg10
(g161
g11
g12
tp168
s(g4
g4
g4
tp169
I33237
s(g4
g3
g4
tp170
I371655
ssS'\xe5\xb9\xb2\xe9\x83\xa8\xe9\x98\x9f\xe4\xbc\x8d'
p171
(dp172
(g18
g19
g18
tp173
I4962900
s(g19
g19
g18
tp174
I12038
s(g18
g18
g19
tp175
I17577555
s(g18
g19
g19
tp176
I932190
s(g19
g18
g18
tp177
I158369
sg25
(g171
g26
g27
tp178
s(g19
g19
g19
tp179
I34307
s(g19
g18
g19
tp180
I44011
ssS'\xe6\x9c\xba\xe5\x88\xb6'
p181
(dp182
(g3
g4
g3
tp183
I4867703
s(g4
g4
g3
tp184
I182122
s(g3
g3
g4
tp185
I17709133
s(g3
g4
g4
tp186
I927746
s(g4
g3
g3
tp187
I4645384
sg10
(g181
g11
g12
tp188
s(g4
g4
g4
tp189
I77635
s(g4
g3
g4
tp190
I2334473
ssS'\xe4\xb8\xad\xe5\xa4\xae\xe5\xa7\x94\xe5\x91\x98\xe4\xbc\x9a'
p191
(dp192
(g3
g4
g3
tp193
I4867703
s(g4
g4
g3
tp194
I4374
s(g3
g3
g4
tp195
I17709133
s(g3
g4
g4
tp196
I927746
s(g4
g3
g3
tp197
I41560
sg10
(g191
g11
g12
tp198
s(g4
g4
g4
tp199
I6739
s(g4
g3
g4
tp200
I19397
ssS'\xe5\x92\x8c\xe8\xb0\x90\xe7\xa4\xbe\xe4\xbc\x9a'
p201
(dp202
(g3
g4
g3
tp203
I4867715
s(g4
g4
g3
tp204
I12664
s(g3
g3
g4
tp205
I17709133
s(g3
g4
g4
tp206
I927751
s(g4
g3
g3
tp207
I1517359
sg10
(g201
g11
g12
tp208
s(g4
g4
g4
tp209
I49828
s(g4
g3
g4
tp210
I114294
ssS'\xe4\xbd\x93\xe7\xb3\xbb'
p211
(dp212
(g18
g19
g18
tp213
I4962900
s(g19
g19
g18
tp214
I197998
s(g18
g18
g19
tp215
I17577563
s(g18
g19
g19
tp216
I932118
s(g19
g18
g18
tp217
I5873610
sg25
(g211
g26
g27
tp218
s(g19
g19
g19
tp219
I90299
s(g19
g18
g19
tp220
I10394852
ssS'\xe5\x86\x9b\xe9\x98\x9f'
p221
(dp222
(g18
g19
g18
tp223
I4962883
s(g19
g19
g18
tp224
I45302
s(g18
g18
g19
tp225
I18499080
s(g18
g19
g19
tp226
I1380407
s(g19
g18
g18
tp227
I909095
sg25
(g221
g26
g27
tp228
s(g19
g19
g19
tp229
I81848
s(g19
g18
g19
tp230
I137695
ssS'\xe5\x85\x9a\xe7\x9a\x84\xe5\xbb\xba\xe8\xae\xbe'
p231
(dp232
(g18
g19
g18
tp233
I4962900
s(g19
g19
g18
tp234
I58735
s(g18
g18
g19
tp235
I17577562
s(g18
g19
g19
tp236
I932190
s(g19
g18
g18
tp237
I173600
sg25
(g231
g26
g27
tp238
s(g19
g19
g19
tp239
I91455
s(g19
g18
g19
tp240
I155457
ssS'\xe5\x8a\xa0\xe5\xbf\xab'
p241
(dp242
(g18
g19
g18
tp243
I4963373
s(g19
g19
g18
tp244
I145620
s(g18
g18
g19
tp245
I18499080
s(g18
g19
g19
tp246
I1380407
s(g19
g18
g18
tp247
I6368924
sg25
(g241
g26
g27
tp248
s(g19
g19
g19
tp249
I79938
s(g19
g18
g19
tp250
I285444
ssS'\xe5\x8d\x81\xe5\x85\xad\xe5\xa4\xa7'
p251
(dp252
(g18
g19
g18
tp253
I4963373
s(g19
g19
g18
tp254
I43746
s(g18
g18
g19
tp255
I17577555
s(g18
g19
g19
tp256
I1366176
s(g19
g18
g18
tp257
I211901
sg25
(g251
g26
g27
tp258
s(g19
g19
g19
tp259
I48846
s(g19
g18
g19
tp260
I56364
ssS'\xe4\xbf\x83\xe8\xbf\x9b'
p261
(dp262
(g3
g4
g3
tp263
I4867703
s(g4
g4
g3
tp264
I139314
s(g3
g3
g4
tp265
I17709133
s(g3
g4
g4
tp266
I927746
s(g4
g3
g3
tp267
I7635138
sg10
(g261
g11
g12
tp268
s(g4
g4
g4
tp269
I71755
s(g4
g3
g4
tp270
I316677
ssS'\xe6\x94\xbf\xe6\xb2\xbb\xe6\x96\x87\xe6\x98\x8e'
p271
(dp272
(g18
g19
g18
tp273
I4962900
s(g19
g19
g18
tp274
I2151
s(g18
g18
g19
tp275
I17577562
s(g18
g19
g19
tp276
I932190
s(g19
g18
g18
tp277
I688022
sg25
(g271
g26
g27
tp278
s(g19
g19
g19
tp279
I10925
s(g19
g18
g19
tp280
I26310
ssS'\xe5\x8d\x8f\xe8\xb0\x83'
p281
(dp282
(g3
g4
g3
tp283
I4867703
s(g4
g4
g3
tp284
I71784
s(g3
g3
g4
tp285
I17709133
s(g3
g4
g4
tp286
I927746
s(g4
g3
g3
tp287
I508264
sg10
(g281
g11
g12
tp288
s(g4
g4
g4
tp289
I53210
s(g4
g3
g4
tp290
I123302
ssS'\xe6\xb7\xb1\xe5\x8c\x96'
p291
(dp292
(g3
g4
g3
tp293
I4867703
s(g4
g4
g3
tp294
I27564
s(g3
g3
g4
tp295
I17709137
s(g3
g4
g4
tp296
I927746
s(g4
g3
g3
tp297
I394764
sg10
(g291
g11
g12
tp298
s(g4
g4
g4
tp299
I48448
s(g4
g3
g4
tp300
I71127
ssS'\xe6\x95\x99\xe8\x82\xb2'
p301
(dp302
(g18
g19
g18
tp303
I4962899
s(g19
g19
g18
tp304
I744309
s(g18
g18
g19
tp305
I17577555
s(g18
g19
g19
tp306
I1366176
s(g19
g18
g18
tp307
I78275263
sg25
(g301
g26
g27
tp308
s(g19
g19
g19
tp309
I152804
s(g19
g18
g19
tp310
I1202625
ssS'\xe5\x8d\x81\xe4\xba\x8c\xe5\xb1\x8a'
p311
(dp312
(g3
g4
g3
tp313
I4867715
s(g4
g4
g3
tp314
I15402
s(g3
g3
g4
tp315
I17709133
s(g3
g4
g4
tp316
I927746
s(g4
g3
g3
tp317
I262512
sg10
(g311
g11
g12
tp318
s(g4
g4
g4
tp319
I22178
s(g4
g3
g4
tp320
I18623
ssS'\xe7\xbb\x8f\xe6\xb5\x8e\xe4\xbd\x93\xe5\x88\xb6'
p321
(dp322
(g18
g19
g18
tp323
I4963373
s(g19
g19
g18
tp324
I14518
s(g18
g18
g19
tp325
I18499080
s(g18
g19
g19
tp326
I1380407
s(g19
g18
g18
tp327
I115767
sg25
(g321
g26
g27
tp328
s(g19
g19
g19
tp329
I29049
s(g19
g18
g19
tp330
I76975
ssS'\xe6\x88\x98\xe7\x95\xa5'
p331
(dp332
(g3
g4
g3
tp333
I4867703
s(g4
g4
g3
tp334
I105171
s(g3
g3
g4
tp335
I17709133
s(g3
g4
g4
tp336
I927746
s(g4
g3
g3
tp337
I2943010
sg10
(g331
g11
g12
tp338
s(g4
g4
g4
tp339
I66771
s(g4
g3
g4
tp340
I606481
ssS'\xe7\x94\x9f\xe4\xba\xa7\xe5\x8a\x9b'
p341
(dp342
(g3
g4
g3
tp343
I4867703
s(g4
g4
g3
tp344
I60976
s(g3
g3
g4
tp345
I17709133
s(g3
g4
g4
tp346
I927746
s(g4
g3
g3
tp347
I942412
sg10
(g341
g11
g12
tp348
s(g4
g4
g4
tp349
I47931
s(g4
g3
g4
tp350
I80960
ssS'\xe4\xbc\x9f\xe5\xa4\xa7\xe6\x97\x97\xe5\xb8\x9c'
p351
(dp352
(g18
g19
g18
tp353
I4963373
s(g19
g19
g18
tp354
I19617
s(g18
g18
g19
tp355
I18499080
s(g18
g19
g19
tp356
I1380407
s(g19
g18
g18
tp357
I43837
sg25
(g351
g26
g27
tp358
s(g19
g19
g19
tp359
I69823
s(g19
g18
g19
tp360
I28322
ssS'\xe5\x8f\xb8\xe6\xb3\x95'
p361
(dp362
(g3
g4
g3
tp363
I4867715
s(g4
g4
g3
tp364
I66514
s(g3
g3
g4
tp365
I17709133
s(g3
g4
g4
tp366
I927746
s(g4
g3
g3
tp367
I2560371
sg10
(g361
g11
g12
tp368
s(g4
g4
g4
tp369
I42226
s(g4
g3
g4
tp370
I232229
ssS'\xe5\xa2\x9e\xe5\xbc\xba'
p371
(dp372
(g3
g4
g3
tp373
I4867703
s(g4
g4
g3
tp374
I328285
s(g3
g3
g4
tp375
I17709133
s(g3
g4
g4
tp376
I927746
s(g4
g3
g3
tp377
I9237153
sg10
(g371
g11
g12
tp378
s(g4
g4
g4
tp379
I110552
s(g4
g3
g4
tp380
I682563
ssS'\xe5\x88\x9b\xe6\x96\xb0'
p381
(dp382
(g18
g19
g18
tp383
I4962900
s(g19
g19
g18
tp384
I94122
s(g18
g18
g19
tp385
I17577563
s(g18
g19
g19
tp386
I932118
s(g19
g18
g18
tp387
I3344897
sg25
(g381
g26
g27
tp388
s(g19
g19
g19
tp389
I59440
s(g19
g18
g19
tp390
I474399
ssS'\xe5\x90\x8c\xe5\xbf\x97'
p391
(dp392
(g3
g4
g3
tp393
I4867703
s(g4
g4
g3
tp394
I68615
s(g3
g3
g4
tp395
I17709133
s(g3
g4
g4
tp396
I927746
s(g4
g3
g3
tp397
I2186458
sg10
(g391
g11
g12
tp398
s(g4
g4
g4
tp399
I49248
s(g4
g3
g4
tp400
I65028
ssS'\xe8\x81\x8c\xe8\x83\xbd'
p401
(dp402
(g3
g4
g3
tp403
I4867703
s(g4
g4
g3
tp404
I75935
s(g3
g3
g4
tp405
I17709133
s(g3
g4
g4
tp406
I927746
s(g4
g3
g3
tp407
I372947
sg10
(g401
g11
g12
tp408
s(g4
g4
g4
tp409
I55304
s(g4
g3
g4
tp410
I128723
ssS'\xe5\x86\x9c\xe6\xb0\x91'
p411
(dp412
(g3
g4
g3
tp413
I4867703
s(g4
g4
g3
tp414
I75345
s(g3
g3
g4
tp415
I17709133
s(g3
g4
g4
tp416
I927746
s(g4
g3
g3
tp417
I2334622
sg10
(g411
g11
g12
tp418
s(g4
g4
g4
tp419
I55238
s(g4
g3
g4
tp420
I228887
ssS'\xe5\x85\xa8\xe5\x9b\xbd\xe6\x94\xbf\xe5\x8d\x8f'
p421
(dp422
(g3
g4
g3
tp423
I4867703
s(g4
g4
g3
tp424
I26288
s(g3
g3
g4
tp425
I17709133
s(g3
g4
g4
tp426
I927746
s(g4
g3
g3
tp427
I1457207
sg10
(g421
g11
g12
tp428
s(g4
g4
g4
tp429
I42750
s(g4
g3
g4
tp430
I54223
ssS'\xe5\x8d\x81\xe5\xb1\x8a'
p431
(dp432
(g18
g19
g18
tp433
I4962900
s(g19
g19
g18
tp434
I8752
s(g18
g18
g19
tp435
I17577563
s(g18
g19
g19
tp436
I932118
s(g19
g18
g18
tp437
I286679
sg25
(g431
g26
g27
tp438
s(g19
g19
g19
tp439
I20131
s(g19
g18
g19
tp440
I16719
ssS'\xe5\x8a\xa0\xe5\xbc\xba'
p441
(dp442
(g18
g19
g18
tp443
I4962900
s(g19
g19
g18
tp444
I169695
s(g18
g18
g19
tp445
I17577563
s(g18
g19
g19
tp446
I932190
s(g19
g18
g18
tp447
I11572560
sg25
(g441
g26
g27
tp448
s(g19
g19
g19
tp449
I85231
s(g19
g18
g19
tp450
I947379
ssS'\xe9\x82\x93\xe5\xb0\x8f\xe5\xb9\xb3\xe7\x90\x86\xe8\xae\xba'
p451
(dp452
(g18
g19
g18
tp453
I4962900
s(g19
g19
g18
tp454
I35786
s(g18
g18
g19
tp455
I17577563
s(g18
g19
g19
tp456
I932118
s(g19
g18
g18
tp457
I362787
sg25
(g451
g26
g27
tp458
s(g19
g19
g19
tp459
I82680
s(g19
g18
g19
tp460
I94655
ssS'\xe4\xb8\x89\xe4\xb8\xaa\xe4\xbb\xa3\xe8\xa1\xa8'
p461
(dp462
(g3
g4
g3
tp463
I4867703
s(g4
g4
g3
tp464
I8909
s(g3
g3
g4
tp465
I17709133
s(g3
g4
g4
tp466
I927746
s(g4
g3
g3
tp467
I211708
sg10
(g461
g11
g12
tp468
s(g4
g4
g4
tp469
I8911
s(g4
g3
g4
tp470
I64722
ssS'\xe5\x8f\x91\xe5\xb1\x95\xe8\xa7\x82'
p471
(dp472
(g18
g19
g18
tp473
I4963373
s(g19
g19
g18
tp474
I57428
s(g18
g18
g19
tp475
I17577555
s(g18
g19
g19
tp476
I1380407
s(g19
g18
g18
tp477
I453002
sg25
(g471
g26
g27
tp478
s(g19
g19
g19
tp479
I38494
s(g19
g18
g19
tp480
I114572
ssS'\xe4\xb9\x9d\xe5\xb1\x8a'
p481
(dp482
(g18
g19
g18
tp483
I4962900
s(g19
g19
g18
tp484
I11982
s(g18
g18
g19
tp485
I17577555
s(g18
g19
g19
tp486
I932190
s(g19
g18
g18
tp487
I302851
sg25
(g481
g26
g27
tp488
s(g19
g19
g19
tp489
I24112
s(g19
g18
g19
tp490
I21090
ssS'\xe5\x8d\x81\xe4\xb8\x80\xe5\xb1\x8a'
p491
(dp492
(g18
g19
g18
tp493
I4963373
s(g19
g19
g18
tp494
I21942
s(g18
g18
g19
tp495
I18499080
s(g18
g19
g19
tp496
I1380407
s(g19
g18
g18
tp497
I283837
sg25
(g491
g26
g27
tp498
s(g19
g19
g19
tp499
I42800
s(g19
g18
g19
tp500
I26797
ssS'\xe5\xa7\x8b\xe7\xbb\x88'
p501
(dp502
(g18
g19
g18
tp503
I4962899
s(g19
g19
g18
tp504
I82321
s(g18
g18
g19
tp505
I17577555
s(g18
g19
g19
tp506
I1366176
s(g19
g18
g18
tp507
I2808453
sg25
(g501
g26
g27
tp508
s(g19
g19
g19
tp509
I58363
s(g19
g18
g19
tp510
I86954
ssS'\xe7\xbb\x9f\xe7\xad\xb9'
p511
(dp512
(g3
g4
g3
tp513
I4867703
s(g4
g4
g3
tp514
I65668
s(g3
g3
g4
tp515
I17709133
s(g3
g4
g4
tp516
I927746
s(g4
g3
g3
tp517
I15405705
sg10
(g511
g11
g12
tp518
s(g4
g4
g4
tp519
I38834
s(g4
g3
g4
tp520
I89942
ssS'\xe7\xac\xac\xe5\x8d\x81\xe5\x85\xad\xe5\xb1\x8a'
p521
(dp522
(g18
g19
g18
tp523
I4962899
s(g19
g19
g18
tp524
I34478
s(g18
g18
g19
tp525
I17577555
s(g18
g19
g19
tp526
I1366176
s(g19
g18
g18
tp527
I310716
sg25
(g521
g26
g27
tp528
s(g19
g19
g19
tp529
I26730
s(g19
g18
g19
tp530
I37392
ssS'\xe5\xbf\x85\xe9\xa1\xbb'
p531
(dp532
(g18
g19
g18
tp533
I4962883
s(g19
g19
g18
tp534
I104632
s(g18
g18
g19
tp535
I17577555
s(g18
g19
g19
tp536
I1380407
s(g19
g18
g18
tp537
I3832230
sg25
(g531
g26
g27
tp538
s(g19
g19
g19
tp539
I70878
s(g19
g18
g19
tp540
I152512
ssS'\xe8\xa1\x8c\xe6\x94\xbf'
p541
(dp542
(g18
g19
g18
tp543
I4962901
s(g19
g19
g18
tp544
I128414
s(g18
g18
g19
tp545
I17577563
s(g18
g19
g19
tp546
I932190
s(g19
g18
g18
tp547
I2914510
sg25
(g541
g26
g27
tp548
s(g19
g19
g19
tp549
I66741
s(g19
g18
g19
tp550
I354214
ssS'\xe5\x86\x9c\xe4\xb8\x9a'
p551
(dp552
(g3
g4
g3
tp553
I4867703
s(g4
g4
g3
tp554
I163474
s(g3
g3
g4
tp555
I17709133
s(g3
g4
g4
tp556
I927746
s(g4
g3
g3
tp557
I9443047
sg10
(g551
g11
g12
tp558
s(g4
g4
g4
tp559
I77915
s(g4
g3
g4
tp560
I1198041
ssS'\xe6\x9e\x84\xe5\xbb\xba'
p561
(dp562
(g3
g4
g3
tp563
I4867703
s(g4
g4
g3
tp564
I223928
s(g3
g3
g4
tp565
I17709133
s(g3
g4
g4
tp566
I927746
s(g4
g3
g3
tp567
I1277693
sg10
(g561
g11
g12
tp568
s(g4
g4
g4
tp569
I81606
s(g4
g3
g4
tp570
I102177328
ssS'\xe4\xbd\x9c\xe9\xa3\x8e'
p571
(dp572
(g3
g4
g3
tp573
I4867703
s(g4
g4
g3
tp574
I63019
s(g3
g3
g4
tp575
I17709133
s(g3
g4
g4
tp576
I927751
s(g4
g3
g3
tp577
I2142501
sg10
(g571
g11
g12
tp578
s(g4
g4
g4
tp579
I41098
s(g4
g3
g4
tp580
I241661
ssS'\xe4\xbc\x81\xe4\xb8\x9a'
p581
(dp582
(g3
g4
g3
tp583
I4867703
s(g4
g4
g3
tp584
I464540
s(g3
g3
g4
tp585
I17709133
s(g3
g4
g4
tp586
I927746
s(g4
g3
g3
tp587
I73731760
sg10
(g581
g11
g12
tp588
s(g4
g4
g4
tp589
I164376
s(g4
g3
g4
tp590
I1191433
ssS'\xe4\xba\x8b\xe4\xb8\x9a'
p591
(dp592
(g3
g4
g3
tp593
I4867703
s(g4
g4
g3
tp594
I2360459
s(g3
g3
g4
tp595
I17709133
s(g3
g4
g4
tp596
I927746
s(g4
g3
g3
tp597
I32448918
sg10
(g591
g11
g12
tp598
s(g4
g4
g4
tp599
I147497
s(g4
g3
g4
tp600
I3120514
ssS'\xe7\x89\xb9\xe8\x89\xb2'
p601
(dp602
(g18
g19
g18
tp603
I4962883
s(g19
g19
g18
tp604
I80711
s(g18
g18
g19
tp605
I17577555
s(g18
g19
g19
tp606
I1366176
s(g19
g18
g18
tp607
I8027877
sg25
(g601
g26
g27
tp608
s(g19
g19
g19
tp609
I55862
s(g19
g18
g19
tp610
I3842735
ssS'\xe4\xba\xba\xe6\xb0\x91'
p611
(dp612
(g3
g4
g3
tp613
I4867703
s(g4
g4
g3
tp614
I298252
s(g3
g3
g4
tp615
I17709133
s(g3
g4
g4
tp616
I927746
s(g4
g3
g3
tp617
I24457839
sg10
(g611
g11
g12
tp618
s(g4
g4
g4
tp619
I85103
s(g4
g3
g4
tp620
I796141
ssS'\xe7\xb2\xbe\xe7\xa5\x9e'
p621
(dp622
(g3
g4
g3
tp623
I4867715
s(g4
g4
g3
tp624
I77093
s(g3
g3
g4
tp625
I17709133
s(g3
g4
g4
tp626
I927751
s(g4
g3
g3
tp627
I4898255
sg10
(g621
g11
g12
tp628
s(g4
g4
g4
tp629
I53501
s(g4
g3
g4
tp630
I671898
ssS'\xe5\x90\x8d\xe5\x8d\x95'
p631
(dp632
(g18
g19
g18
tp633
I4962900
s(g19
g19
g18
tp634
I362921
s(g18
g18
g19
tp635
I17577562
s(g18
g19
g19
tp636
I932191
s(g19
g18
g18
tp637
I9068790
sg25
(g631
g26
g27
tp638
s(g19
g19
g19
tp639
I77319
s(g19
g18
g19
tp640
I400403
ssS'\xe5\x8d\x81\xe4\xb8\x83'
p641
(dp642
(g18
g19
g18
tp643
I4962899
s(g19
g19
g18
tp644
I88242
s(g18
g18
g19
tp645
I17577555
s(g18
g19
g19
tp646
I1366176
s(g19
g18
g18
tp647
I1829455
sg25
(g641
g26
g27
tp648
s(g19
g19
g19
tp649
I59543
s(g19
g18
g19
tp650
I98017
ssS'\xe4\xbd\x93\xe5\x88\xb6'
p651
(dp652
(g18
g19
g18
tp653
I4963373
s(g19
g19
g18
tp654
I163938
s(g18
g18
g19
tp655
I18499080
s(g18
g19
g19
tp656
I1380407
s(g19
g18
g18
tp657
I3192429
sg25
(g651
g26
g27
tp658
s(g19
g19
g19
tp659
I79339
s(g19
g18
g19
tp660
I719765
ssS'\xe5\x92\x8c\xe8\xb0\x90'
p661
(dp662
(g18
g19
g18
tp663
I4962900
s(g19
g19
g18
tp664
I64525
s(g18
g18
g19
tp665
I17577562
s(g18
g19
g19
tp666
I932190
s(g19
g18
g18
tp667
I1671220
sg25
(g661
g26
g27
tp668
s(g19
g19
g19
tp669
I54559
s(g19
g18
g19
tp670
I134130
ssS'\xe6\xb0\x91\xe4\xb8\xbb'
p671
(dp672
(g18
g19
g18
tp673
I4962900
s(g19
g19
g18
tp674
I63709
s(g18
g18
g19
tp675
I17577563
s(g18
g19
g19
tp676
I932191
s(g19
g18
g18
tp677
I1200049
sg25
(g671
g26
g27
tp678
s(g19
g19
g19
tp679
I49686
s(g19
g18
g19
tp680
I121471
ssS'\xe6\x94\xbf\xe6\xb2\xbb'
p681
(dp682
(g18
g19
g18
tp683
I4963373
s(g19
g19
g18
tp684
I136637
s(g18
g18
g19
tp685
I18499080
s(g18
g19
g19
tp686
I1380407
s(g19
g18
g18
tp687
I9396675
sg25
(g681
g26
g27
tp688
s(g19
g19
g19
tp689
I63992
s(g19
g18
g19
tp690
I1155611
ssS'\xe6\x96\x87\xe5\x8c\x96'
p691
(dp692
(g3
g4
g3
tp693
I4867703
s(g4
g4
g3
tp694
I128629
s(g3
g3
g4
tp695
I17709133
s(g3
g4
g4
tp696
I927746
s(g4
g3
g3
tp697
I14683715
sg10
(g691
g11
g12
tp698
s(g4
g4
g4
tp699
I60409
s(g4
g3
g4
tp700
I10851575
ssS'\xe4\xbf\x9d\xe6\x8c\x81'
p701
(dp702
(g3
g4
g3
tp703
I4867703
s(g4
g4
g3
tp704
I92285
s(g3
g3
g4
tp705
I17709133
s(g3
g4
g4
tp706
I927746
s(g4
g3
g3
tp707
I2363955
sg10
(g701
g11
g12
tp708
s(g4
g4
g4
tp709
I63767
s(g4
g3
g4
tp710
I161235
ssS'\xe5\xae\x9e\xe6\x96\xbd'
p711
(dp712
(g3
g4
g3
tp713
I4867703
s(g4
g4
g3
tp714
I272213
s(g3
g3
g4
tp715
I17709133
s(g3
g4
g4
tp716
I927746
s(g4
g3
g3
tp717
I1735775
sg10
(g711
g11
g12
tp718
s(g4
g4
g4
tp719
I92310
s(g4
g3
g4
tp720
I961649
ssS'\xe6\xb1\x9f\xe6\xb3\xbd\xe6\xb0\x91'
p721
(dp722
(g3
g4
g3
tp723
I4867715
s(g4
g4
g3
tp724
I8004
s(g3
g3
g4
tp725
I17709138
s(g3
g4
g4
tp726
I927746
s(g4
g3
g3
tp727
I79222
sg10
(g721
g11
g12
tp728
s(g4
g4
g4
tp729
I6511
s(g4
g3
g4
tp730
I13776
ssS'\xe6\x9c\xba\xe6\x9e\x84'
p731
(dp732
(g18
g19
g18
tp733
I4962900
s(g19
g19
g18
tp734
I605351
s(g18
g18
g19
tp735
I17577555
s(g18
g19
g19
tp736
I932190
s(g19
g18
g18
tp737
I6648583
sg25
(g731
g26
g27
tp738
s(g19
g19
g19
tp739
I133658
s(g19
g18
g19
tp740
I727962
ssS'\xe5\x9b\xbd\xe6\x9c\x89\xe7\xbb\x8f\xe6\xb5\x8e'
p741
(dp742
(g18
g19
g18
tp743
I4962900
s(g19
g19
g18
tp744
I11957
s(g18
g18
g19
tp745
I17577563
s(g18
g19
g19
tp746
I932118
s(g19
g18
g18
tp747
I587038
sg25
(g741
g26
g27
tp748
s(g19
g19
g19
tp749
I11438
s(g19
g18
g19
tp750
I26091
ssS'\xe5\xb0\x8f\xe5\xba\xb7\xe7\xa4\xbe\xe4\xbc\x9a'
p751
(dp752
(g18
g19
g18
tp753
I4963373
s(g19
g19
g18
tp754
I39033
s(g18
g18
g19
tp755
I17577555
s(g18
g19
g19
tp756
I1366176
s(g19
g18
g18
tp757
I272538
sg25
(g751
g26
g27
tp758
s(g19
g19
g19
tp759
I69023
s(g19
g18
g19
tp760
I84727
ssS'\xe6\x88\x91\xe5\x9b\xbd'
p761
(dp762
(g18
g19
g18
tp763
I4963373
s(g19
g19
g18
tp764
I5749034
s(g18
g18
g19
tp765
I18499080
s(g18
g19
g19
tp766
I1380407
s(g19
g18
g18
tp767
I3003453
sg25
(g761
g26
g27
tp768
s(g19
g19
g19
tp769
I720640
s(g19
g18
g19
tp770
I1778351
ssS'\xe7\xa4\xbe\xe4\xbc\x9a'
p771
(dp772
(g3
g4
g3
tp773
I4867715
s(g4
g4
g3
tp774
I307881
s(g3
g3
g4
tp775
I17709133
s(g3
g4
g4
tp776
I927746
s(g4
g3
g3
tp777
I10824596
sg10
(g771
g11
g12
tp778
s(g4
g4
g4
tp779
I67668
s(g4
g3
g4
tp780
I448948
ssS'\xe5\x90\x84\xe6\x97\x8f\xe4\xba\xba\xe6\xb0\x91'
p781
(dp782
(g18
g19
g18
tp783
I4962900
s(g19
g19
g18
tp784
I45035
s(g18
g18
g19
tp785
I17577563
s(g18
g19
g19
tp786
I932118
s(g19
g18
g18
tp787
I85065
sg25
(g781
g26
g27
tp788
s(g19
g19
g19
tp789
I53928
s(g19
g18
g19
tp790
I49186
ssS'\xe7\xa4\xbe\xe4\xbc\x9a\xe4\xb8\xbb\xe4\xb9\x89'
p791
(dp792
(g18
g19
g18
tp793
I4962900
s(g19
g19
g18
tp794
I30831
s(g18
g18
g19
tp795
I17577562
s(g18
g19
g19
tp796
I932190
s(g19
g18
g18
tp797
I1018310
sg25
(g791
g26
g27
tp798
s(g19
g19
g19
tp799
I79115
s(g19
g18
g19
tp800
I248581
ssS'\xe9\x87\x8d\xe7\x82\xb9'
p801
(dp802
(g3
g4
g3
tp803
I4867703
s(g4
g4
g3
tp804
I126576
s(g3
g3
g4
tp805
I17709133
s(g3
g4
g4
tp806
I927746
s(g4
g3
g3
tp807
I3032766
sg10
(g801
g11
g12
tp808
s(g4
g4
g4
tp809
I67382
s(g4
g3
g4
tp810
I426335
ssS'\xe7\xbb\x8f\xe6\xb5\x8e'
p811
(dp812
(g3
g4
g3
tp813
I4867703
s(g4
g4
g3
tp814
I20143747
s(g3
g3
g4
tp815
I17709138
s(g3
g4
g4
tp816
I927746
s(g4
g3
g3
tp817
I45626872
sg10
(g811
g11
g12
tp818
s(g4
g4
g4
tp819
I208674
s(g4
g3
g4
tp820
I1591877
ssS'\xe5\x9f\xba\xe6\x9c\xac'
p821
(dp822
(g18
g19
g18
tp823
I4963373
s(g19
g19
g18
tp824
I653353
s(g18
g18
g19
tp825
I17577555
s(g18
g19
g19
tp826
I1380407
s(g19
g18
g18
tp827
I6849333
sg25
(g821
g26
g27
tp828
s(g19
g19
g19
tp829
I129678
s(g19
g18
g19
tp830
I3410381
ssS'\xe9\x9d\x9e\xe5\x85\xac\xe6\x9c\x89\xe5\x88\xb6'
p831
(dp832
(g3
g4
g3
tp833
I4867703
s(g4
g4
g3
tp834
I31811
s(g3
g3
g4
tp835
I17709133
s(g3
g4
g4
tp836
I927746
s(g4
g3
g3
tp837
I709235
sg10
(g831
g11
g12
tp838
s(g4
g4
g4
tp839
I67892
s(g4
g3
g4
tp840
I59972
ssS'\xe7\xae\xa1\xe7\x90\x86\xe4\xbd\x93\xe5\x88\xb6'
p841
(dp842
(g18
g19
g18
tp843
I4963373
s(g19
g19
g18
tp844
I36556
s(g18
g18
g19
tp845
I18499080
s(g18
g19
g19
tp846
I1380407
s(g19
g18
g18
tp847
I989171
sg25
(g841
g26
g27
tp848
s(g19
g19
g19
tp849
I65233
s(g19
g18
g19
tp850
I173506
ssS'\xe4\xbe\x9d\xe6\xb3\x95\xe6\xb2\xbb\xe5\x9b\xbd'
p851
(dp852
(g18
g19
g18
tp853
I4962900
s(g19
g19
g18
tp854
I42017
s(g18
g18
g19
tp855
I17577563
s(g18
g19
g19
tp856
I932118
s(g19
g18
g18
tp857
I265020
sg25
(g851
g26
g27
tp858
s(g19
g19
g19
tp859
I90945
s(g19
g18
g19
tp860
I75180
ssS'\xe7\xac\xac\xe5\x8d\x81\xe4\xba\x94\xe5\xb1\x8a'
p861
(dp862
(g3
g4
g3
tp863
I4867703
s(g4
g4
g3
tp864
I24725
s(g3
g3
g4
tp865
I17709133
s(g3
g4
g4
tp866
I927746
s(g4
g3
g3
tp867
I300793
sg10
(g861
g11
g12
tp868
s(g4
g4
g4
tp869
I22579
s(g4
g3
g4
tp870
I30606
ssS'\xe8\x83\xbd\xe5\x8a\x9b'
p871
(dp872
(g3
g4
g3
tp873
I4867703
s(g4
g4
g3
tp874
I130484
s(g3
g3
g4
tp875
I17709133
s(g3
g4
g4
tp876
I927746
s(g4
g3
g3
tp877
I2604433
sg10
(g871
g11
g12
tp878
s(g4
g4
g4
tp879
I70173
s(g4
g3
g4
tp880
I2350277
ssS'\xe5\xb7\xa5\xe4\xbd\x9c'
p881
(dp882
(g3
g4
g3
tp883
I4867703
s(g4
g4
g3
tp884
I1601985
s(g3
g3
g4
tp885
I17709133
s(g3
g4
g4
tp886
I927746
s(g4
g3
g3
tp887
I21159735
sg10
(g881
g11
g12
tp888
s(g4
g4
g4
tp889
I202294
s(g4
g3
g4
tp890
I254490
ssS'\xe4\xb9\xa0\xe8\xbf\x91\xe5\xb9\xb3'
p891
(dp892
(g3
g4
g3
tp893
I4867703
s(g4
g4
g3
tp894
I9293
s(g3
g3
g4
tp895
I17709133
s(g3
g4
g4
tp896
I927751
s(g4
g3
g3
tp897
I672656
sg10
(g891
g11
g12
tp898
s(g4
g4
g4
tp899
I6281
s(g4
g3
g4
tp900
I16488
ssS'\xe6\xb3\x95\xe5\xbe\x8b'
p901
(dp902
(g18
g19
g18
tp903
I4963373
s(g19
g19
g18
tp904
I228234
s(g18
g18
g19
tp905
I18499080
s(g18
g19
g19
tp906
I1380407
s(g19
g18
g18
tp907
I16638883
sg25
(g901
g26
g27
tp908
s(g19
g19
g19
tp909
I81896
s(g19
g18
g19
tp910
I1627708
ssS'\xe5\x85\x9a\xe7\x9a\x84\xe9\xa2\x86\xe5\xaf\xbc'
p911
(dp912
(g18
g19
g18
tp913
I4962883
s(g19
g19
g18
tp914
I52749
s(g18
g18
g19
tp915
I18499080
s(g18
g19
g19
tp916
I1380407
s(g19
g18
g18
tp917
I259732
sg25
(g911
g26
g27
tp918
s(g19
g19
g19
tp919
I84172
s(g19
g18
g19
tp920
I131964
ssS'\xe6\x96\x87\xe5\x8c\x96\xe4\xba\xa7\xe4\xb8\x9a'
p921
(dp922
(g3
g4
g3
tp923
I4867703
s(g4
g4
g3
tp924
I12528
s(g3
g3
g4
tp925
I17709133
s(g3
g4
g4
tp926
I927746
s(g4
g3
g3
tp927
I413283
sg10
(g921
g11
g12
tp928
s(g4
g4
g4
tp929
I35311
s(g4
g3
g4
tp930
I119791
ssS'\xe4\xb8\x8d\xe6\x96\xad'
p931
(dp932
(g18
g19
g18
tp933
I4963373
s(g19
g19
g18
tp934
I112565
s(g18
g18
g19
tp935
I18499080
s(g18
g19
g19
tp936
I1380407
s(g19
g18
g18
tp937
I1829575
sg25
(g931
g26
g27
tp938
s(g19
g19
g19
tp939
I66633
s(g19
g18
g19
tp940
I123397
ssS'\xe5\x8d\x81\xe5\x85\xab'
p941
(dp942
(g3
g4
g3
tp943
I4867715
s(g4
g4
g3
tp944
I84988
s(g3
g3
g4
tp945
I17709138
s(g3
g4
g4
tp946
I927751
s(g4
g3
g3
tp947
I3095150
sg10
(g941
g11
g12
tp948
s(g4
g4
g4
tp949
I55993
s(g4
g3
g4
tp950
I106338
ssS'\xe7\xa7\x91\xe5\xad\xa6'
p951
(dp952
(g18
g19
g18
tp953
I4963373
s(g19
g19
g18
tp954
I645382
s(g18
g18
g19
tp955
I18499080
s(g18
g19
g19
tp956
I1380407
s(g19
g18
g18
tp957
I56491528
sg25
(g951
g26
g27
tp958
s(g19
g19
g19
tp959
I151348
s(g19
g18
g19
tp960
I822839
ssS'\xe5\xbb\xba\xe8\xae\xbe'
p961
(dp962
(g3
g4
g3
tp963
I4867715
s(g4
g4
g3
tp964
I294499
s(g3
g3
g4
tp965
I17709133
s(g3
g4
g4
tp966
I927746
s(g4
g3
g3
tp967
I56231132
sg10
(g961
g11
g12
tp968
s(g4
g4
g4
tp969
I91321
s(g4
g3
g4
tp970
I1519054
ssS'\xe7\xbb\x8f\xe6\xb5\x8e\xe7\xa4\xbe\xe4\xbc\x9a'
p971
(dp972
(g18
g19
g18
tp973
I4962900
s(g19
g19
g18
tp974
I40148
s(g18
g18
g19
tp975
I17577563
s(g18
g19
g19
tp976
I932118
s(g19
g18
g18
tp977
I258475
sg25
(g971
g26
g27
tp978
s(g19
g19
g19
tp979
I29218
s(g19
g18
g19
tp980
I96207
ssS'\xe7\xac\xac\xe5\x8d\x81\xe5\x85\xab\xe5\xb1\x8a'
p981
(dp982
(g3
g4
g3
tp983
I4867703
s(g4
g4
g3
tp984
I14321
s(g3
g3
g4
tp985
I17709133
s(g3
g4
g4
tp986
I927746
s(g4
g3
g3
tp987
I312247
sg10
(g981
g11
g12
tp988
s(g4
g4
g4
tp989
I10216
s(g4
g3
g4
tp990
I16088
ssS'\xe6\xb7\xb1\xe5\x8c\x96\xe6\x94\xb9\xe9\x9d\xa9'
p991
(dp992
(g18
g19
g18
tp993
I4963373
s(g19
g19
g18
tp994
I16272
s(g18
g18
g19
tp995
I18499080
s(g18
g19
g19
tp996
I1380407
s(g19
g18
g18
tp997
I1139844
sg25
(g991
g26
g27
tp998
s(g19
g19
g19
tp999
I44274
s(g19
g18
g19
tp1000
I76804
ssS'\xe5\x9b\xbd\xe6\x9c\x89\xe4\xbc\x81\xe4\xb8\x9a'
p1001
(dp1002
(g3
g4
g3
tp1003
I4867703
s(g4
g4
g3
tp1004
I39543
s(g3
g3
g4
tp1005
I17709133
s(g3
g4
g4
tp1006
I927746
s(g4
g3
g3
tp1007
I1201012
sg10
(g1001
g11
g12
tp1008
s(g4
g4
g4
tp1009
I27698
s(g4
g3
g4
tp1010
I58811
ssS'\xe5\x85\x9a\xe5\x86\x85'
p1011
(dp1012
(g18
g19
g18
tp1013
I4963373
s(g19
g19
g18
tp1014
I7986
s(g18
g18
g19
tp1015
I18499080
s(g18
g19
g19
tp1016
I1380407
s(g19
g18
g18
tp1017
I148804
sg25
(g1011
g26
g27
tp1018
s(g19
g19
g19
tp1019
I13721
s(g19
g18
g19
tp1020
I47499
ssS'\xe5\xb9\xb2\xe9\x83\xa8'
p1021
(dp1022
(g18
g19
g18
tp1023
I4963373
s(g19
g19
g18
tp1024
I71149
s(g18
g18
g19
tp1025
I18499080
s(g18
g19
g19
tp1026
I1380407
s(g19
g18
g18
tp1027
I3523781
sg25
(g1021
g26
g27
tp1028
s(g19
g19
g19
tp1029
I47349
s(g19
g18
g19
tp1030
I185198
ssS'\xe7\x9d\x80\xe5\x8a\x9b'
p1031
(dp1032
(g3
g4
g3
tp1033
I4867703
s(g4
g4
g3
tp1034
I62198
s(g3
g3
g4
tp1035
I17709133
s(g3
g4
g4
tp1036
I927751
s(g4
g3
g3
tp1037
I446115
sg10
(g1031
g11
g12
tp1038
s(g4
g4
g4
tp1039
I50749
s(g4
g3
g4
tp1040
I75272
ssS'\xe4\xbd\x93\xe5\x88\xb6\xe6\x94\xb9\xe9\x9d\xa9'
p1041
(dp1042
(g18
g19
g18
tp1043
I4963373
s(g19
g19
g18
tp1044
I42744
s(g18
g18
g19
tp1045
I18499080
s(g18
g19
g19
tp1046
I1380407
s(g19
g18
g18
tp1047
I193756
sg25
(g1041
g26
g27
tp1048
s(g19
g19
g19
tp1049
I87623
s(g19
g18
g19
tp1050
I207164
ssS'\xe7\xbb\x93\xe5\x90\x88'
p1051
(dp1052
(g3
g4
g3
tp1053
I4867703
s(g4
g4
g3
tp1054
I115563
s(g3
g3
g4
tp1055
I17709133
s(g3
g4
g4
tp1056
I927746
s(g4
g3
g3
tp1057
I2371679
sg10
(g1051
g11
g12
tp1058
s(g4
g4
g4
tp1059
I48565
s(g4
g3
g4
tp1060
I588693
ssS'\xe5\x8d\x81\xe4\xb8\x80\xe4\xba\x94'
p1061
(dp1062
(g18
g19
g18
tp1063
I4962900
s(g19
g19
g18
tp1064
I15433
s(g18
g18
g19
tp1065
I17577563
s(g18
g19
g19
tp1066
I932118
s(g19
g18
g18
tp1067
I390724
sg25
(g1061
g26
g27
tp1068
s(g19
g19
g19
tp1069
I38946
s(g19
g18
g19
tp1070
I165334
ssS'\xe5\x9b\xbd\xe5\x8a\xa1\xe9\x99\xa2'
p1071
(dp1072
(g18
g19
g18
tp1073
I4962900
s(g19
g19
g18
tp1074
I75205
s(g18
g18
g19
tp1075
I17577555
s(g18
g19
g19
tp1076
I932191
s(g19
g18
g18
tp1077
I1328865
sg25
(g1071
g26
g27
tp1078
s(g19
g19
g19
tp1079
I51242
s(g19
g18
g19
tp1080
I64016
ssS'\xe4\xbc\x9a\xe8\xae\xae'
p1081
(dp1082
(g18
g19
g18
tp1083
I4963373
s(g19
g19
g18
tp1084
I281646
s(g18
g18
g19
tp1085
I18499080
s(g18
g19
g19
tp1086
I1380407
s(g19
g18
g18
tp1087
I9864370
sg25
(g1081
g26
g27
tp1088
s(g19
g19
g19
tp1089
I87471
s(g19
g18
g19
tp1090
I789292
ssS'\xe8\xb4\xaf\xe5\xbd\xbb'
p1091
(dp1092
(g3
g4
g3
tp1093
I4867703
s(g4
g4
g3
tp1094
I57509
s(g3
g3
g4
tp1095
I17709133
s(g3
g4
g4
tp1096
I927751
s(g4
g3
g3
tp1097
I656548
sg10
(g1091
g11
g12
tp1098
s(g4
g4
g4
tp1099
I47580
s(g4
g3
g4
tp1100
I66631
ssS'\xe7\x8e\xb0\xe4\xbb\xa3\xe5\x8c\x96'
p1101
(dp1102
(g3
g4
g3
tp1103
I4867703
s(g4
g4
g3
tp1104
I85321
s(g3
g3
g4
tp1105
I17709133
s(g3
g4
g4
tp1106
I927746
s(g4
g3
g3
tp1107
I500312
sg10
(g1101
g11
g12
tp1108
s(g4
g4
g4
tp1109
I57688
s(g4
g3
g4
tp1110
I150564
ssS'\xe5\x85\xa8\xe4\xbc\x9a'
p1111
(dp1112
(g3
g4
g3
tp1113
I4867703
s(g4
g4
g3
tp1114
I33072
s(g3
g3
g4
tp1115
I17709133
s(g3
g4
g4
tp1116
I927746
s(g4
g3
g3
tp1117
I617449
sg10
(g1111
g11
g12
tp1118
s(g4
g4
g4
tp1119
I38414
s(g4
g3
g4
tp1120
I49743
ssS'\xe7\xab\x8b\xe6\xb3\x95'
p1121
(dp1122
(g3
g4
g3
tp1123
I4867703
s(g4
g4
g3
tp1124
I57909
s(g3
g3
g4
tp1125
I17709133
s(g3
g4
g4
tp1126
I927746
s(g4
g3
g3
tp1127
I817248
sg10
(g1121
g11
g12
tp1128
s(g4
g4
g4
tp1129
I40350
s(g4
g3
g4
tp1130
I103581
ssS'\xe6\x8e\xa8\xe8\xbf\x9b'
p1131
(dp1132
(g3
g4
g3
tp1133
I4867703
s(g4
g4
g3
tp1134
I45339
s(g3
g3
g4
tp1135
I17709133
s(g3
g4
g4
tp1136
I927746
s(g4
g3
g3
tp1137
I5182579
sg10
(g1131
g11
g12
tp1138
s(g4
g4
g4
tp1139
I62613
s(g4
g3
g4
tp1140
I173072
ssS'\xe9\xa2\x86\xe5\xaf\xbc\xe4\xba\xba\xe5\x91\x98'
p1141
(dp1142
(g3
g4
g3
tp1143
I4867703
s(g4
g4
g3
tp1144
I2192
s(g3
g3
g4
tp1145
I17709133
s(g3
g4
g4
tp1146
I927746
s(g4
g3
g3
tp1147
I25123
sg10
(g1141
g11
g12
tp1148
s(g4
g4
g4
tp1149
I7403
s(g4
g3
g4
tp1150
I9746
ssS'\xe5\x9b\xbd\xe5\xae\xb6'
p1151
(dp1152
(g18
g19
g18
tp1153
I4963373
s(g19
g19
g18
tp1154
I1132568
s(g18
g18
g19
tp1155
I18499080
s(g18
g19
g19
tp1156
I1380407
s(g19
g18
g18
tp1157
I75570577
sg25
(g1151
g26
g27
tp1158
s(g19
g19
g19
tp1159
I267261
s(g19
g18
g19
tp1160
I1540465
ssS'\xe4\xb8\xad\xe5\x9b\xbd\xe5\x85\xb1\xe4\xba\xa7\xe5\x85\x9a'
p1161
(dp1162
(g3
g4
g3
tp1163
I4867703
s(g4
g4
g3
tp1164
I44064
s(g3
g3
g4
tp1165
I17709133
s(g3
g4
g4
tp1166
I927746
s(g4
g3
g3
tp1167
I996017
sg10
(g1161
g11
g12
tp1168
s(g4
g4
g4
tp1169
I63630
s(g4
g3
g4
tp1170
I167209
ssS'\xe6\x89\xa7\xe6\x94\xbf'
p1171
(dp1172
(g3
g4
g3
tp1173
I4867703
s(g4
g4
g3
tp1174
I55632
s(g3
g3
g4
tp1175
I17709133
s(g3
g4
g4
tp1176
I927746
s(g4
g3
g3
tp1177
I24974058
sg10
(g1171
g11
g12
tp1178
s(g4
g4
g4
tp1179
I44533
s(g4
g3
g4
tp1180
I66902
ssS'\xe5\x9d\x9a\xe6\x8c\x81'
p1181
(dp1182
(g18
g19
g18
tp1183
I4962883
s(g19
g19
g18
tp1184
I80461
s(g18
g18
g19
tp1185
I17577555
s(g18
g19
g19
tp1186
I1366176
s(g19
g18
g18
tp1187
I1991006
sg25
(g1181
g26
g27
tp1188
s(g19
g19
g19
tp1189
I56633
s(g19
g18
g19
tp1190
I94890
ssS'\xe5\x85\xa8\xe5\x85\x9a\xe5\x85\xa8\xe5\x9b\xbd'
p1191
(dp1192
(g18
g19
g18
tp1193
I4963373
s(g19
g19
g18
tp1194
I13515
s(g18
g18
g19
tp1195
I18499080
s(g18
g19
g19
tp1196
I1380407
s(g19
g18
g18
tp1197
I23843
sg25
(g1191
g26
g27
tp1198
s(g19
g19
g19
tp1199
I25722
s(g19
g18
g19
tp1200
I21518
ssS'\xe6\x8f\x90\xe9\xab\x98'
p1201
(dp1202
(g3
g4
g3
tp1203
I4867703
s(g4
g4
g3
tp1204
I592894
s(g3
g3
g4
tp1205
I17709133
s(g3
g4
g4
tp1206
I927746
s(g4
g3
g3
tp1207
I1157136
sg10
(g1201
g11
g12
tp1208
s(g4
g4
g4
tp1209
I122897
s(g4
g3
g4
tp1210
I950615
ssS'\xe5\xae\xa1\xe8\xae\xae'
p1211
(dp1212
(g3
g4
g3
tp1213
I4867703
s(g4
g4
g3
tp1214
I56847
s(g3
g3
g4
tp1215
I17709133
s(g3
g4
g4
tp1216
I927746
s(g4
g3
g3
tp1217
I85127
sg10
(g1211
g11
g12
tp1218
s(g4
g4
g4
tp1219
I48808
s(g4
g3
g4
tp1220
I60280
ssS'\xe6\x94\xb9\xe8\xbf\x9b'
p1221
(dp1222
(g3
g4
g3
tp1223
I4867715
s(g4
g4
g3
tp1224
I87555
s(g3
g3
g4
tp1225
I17709133
s(g3
g4
g4
tp1226
I927746
s(g4
g3
g3
tp1227
I3082313
sg10
(g1221
g11
g12
tp1228
s(g4
g4
g4
tp1229
I59125
s(g4
g3
g4
tp1230
I394266
ssS'\xe5\xae\x8c\xe5\x96\x84'
p1231
(dp1232
(g18
g19
g18
tp1233
I4963373
s(g19
g19
g18
tp1234
I99073
s(g18
g18
g19
tp1235
I18499080
s(g18
g19
g19
tp1236
I1380407
s(g19
g18
g18
tp1237
I1328572
sg25
(g1231
g26
g27
tp1238
s(g19
g19
g19
tp1239
I58054
s(g19
g18
g19
tp1240
I158776
ssS'\xe5\x8f\x8d\xe5\xaf\xb9'
p1241
(dp1242
(g3
g4
g3
tp1243
I4867703
s(g4
g4
g3
tp1244
I106937
s(g3
g3
g4
tp1245
I17709133
s(g3
g4
g4
tp1246
I927746
s(g4
g3
g3
tp1247
I6098441
sg10
(g1241
g11
g12
tp1248
s(g4
g4
g4
tp1249
I56326
s(g4
g3
g4
tp1250
I242389
ssS'\xe5\xae\x9e\xe7\x8e\xb0'
p1251
(dp1252
(g3
g4
g3
tp1253
I4867703
s(g4
g4
g3
tp1254
I151065
s(g3
g3
g4
tp1255
I17709133
s(g3
g4
g4
tp1256
I927746
s(g4
g3
g3
tp1257
I7329887
sg10
(g1251
g11
g12
tp1258
s(g4
g4
g4
tp1259
I73619
s(g4
g3
g4
tp1260
I169191
ssS'\xe5\x85\xa8\xe9\x9d\xa2'
p1261
(dp1262
(g3
g4
g3
tp1263
I4867703
s(g4
g4
g3
tp1264
I97222
s(g3
g3
g4
tp1265
I17709133
s(g3
g4
g4
tp1266
I927746
s(g4
g3
g3
tp1267
I4293349
sg10
(g1261
g11
g12
tp1268
s(g4
g4
g4
tp1269
I56228
s(g4
g3
g4
tp1270
I296108
ssS'\xe5\x9b\xbd\xe6\xb0\x91\xe7\xbb\x8f\xe6\xb5\x8e'
p1271
(dp1272
(g18
g19
g18
tp1273
I4963373
s(g19
g19
g18
tp1274
I134905
s(g18
g18
g19
tp1275
I18499080
s(g18
g19
g19
tp1276
I1380407
s(g19
g18
g18
tp1277
I279841
sg25
(g1271
g26
g27
tp1278
s(g19
g19
g19
tp1279
I100509
s(g19
g18
g19
tp1280
I130172
ssS'\xe5\x86\x9c\xe6\x9d\x91'
p1281
(dp1282
(g18
g19
g18
tp1283
I4962899
s(g19
g19
g18
tp1284
I176955
s(g18
g18
g19
tp1285
I17577555
s(g18
g19
g19
tp1286
I932190
s(g19
g18
g18
tp1287
I10707221
sg25
(g1281
g26
g27
tp1288
s(g19
g19
g19
tp1289
I75507
s(g19
g18
g19
tp1290
I769385
ssS'\xe9\xa2\x86\xe5\xaf\xbc'
p1291
(dp1292
(g3
g4
g3
tp1293
I4867703
s(g4
g4
g3
tp1294
I141940
s(g3
g3
g4
tp1295
I17709133
s(g3
g4
g4
tp1296
I927746
s(g4
g3
g3
tp1297
I5407467
sg10
(g1291
g11
g12
tp1298
s(g4
g4
g4
tp1299
I65107
s(g4
g3
g4
tp1300
I323624
ssS'\xe4\xbb\xb7\xe5\x80\xbc\xe4\xbd\x93\xe7\xb3\xbb'
p1301
(dp1302
(g18
g19
g18
tp1303
I4962899
s(g19
g19
g18
tp1304
I1710
s(g18
g18
g19
tp1305
I17577555
s(g18
g19
g19
tp1306
I1366176
s(g19
g18
g18
tp1307
I109508
sg25
(g1301
g26
g27
tp1308
s(g19
g19
g19
tp1309
I5100
s(g19
g18
g19
tp1310
I40174
ssS'\xe9\x87\x8d\xe8\xa6\x81'
p1311
(dp1312
(g3
g4
g3
tp1313
I4867703
s(g4
g4
g3
tp1314
I183827
s(g3
g3
g4
tp1315
I17709133
s(g3
g4
g4
tp1316
I927746
s(g4
g3
g3
tp1317
I3483903
sg10
(g1311
g11
g12
tp1318
s(g4
g4
g4
tp1319
I90416
s(g4
g3
g4
tp1320
I1167553
ssS'\xe9\xa9\xac\xe5\x85\x8b\xe6\x80\x9d\xe4\xb8\xbb\xe4\xb9\x89'
p1321
(dp1322
(g3
g4
g3
tp1323
I4867703
s(g4
g4
g3
tp1324
I44596
s(g3
g3
g4
tp1325
I17709133
s(g3
g4
g4
tp1326
I927751
s(g4
g3
g3
tp1327
I406162
sg10
(g1321
g11
g12
tp1328
s(g4
g4
g4
tp1329
I94331
s(g4
g3
g4
tp1330
I215235
ssS'\xe5\x85\xac\xe5\xb9\xb3\xe6\xad\xa3\xe4\xb9\x89'
p1331
(dp1332
(g3
g4
g3
tp1333
I4867703
s(g4
g4
g3
tp1334
I41145
s(g3
g3
g4
tp1335
I17709133
s(g3
g4
g4
tp1336
I927746
s(g4
g3
g3
tp1337
I355144
sg10
(g1331
g11
g12
tp1338
s(g4
g4
g4
tp1339
I86652
s(g4
g3
g4
tp1340
I75652
ssS'\xe4\xb8\xad\xe5\xa4\xae\xe6\x94\xbf\xe6\xb2\xbb\xe5\xb1\x80'
p1341
(dp1342
(g18
g19
g18
tp1343
I4963373
s(g19
g19
g18
tp1344
I41479
s(g18
g18
g19
tp1345
I18499080
s(g18
g19
g19
tp1346
I1380407
s(g19
g18
g18
tp1347
I345822
sg25
(g1341
g26
g27
tp1348
s(g19
g19
g19
tp1349
I64510
s(g19
g18
g19
tp1350
I71076
ssS'\xe5\x85\xac\xe6\x9c\x89\xe5\x88\xb6'
p1351
(dp1352
(g18
g19
g18
tp1353
I4963373
s(g19
g19
g18
tp1354
I49929
s(g18
g18
g19
tp1355
I18499080
s(g18
g19
g19
tp1356
I1380407
s(g19
g18
g18
tp1357
I1321409
sg25
(g1351
g26
g27
tp1358
s(g19
g19
g19
tp1359
I50785
s(g19
g18
g19
tp1360
I58729
ssS'\xe5\x81\xa5\xe5\x85\xa8'
p1361
(dp1362
(g3
g4
g3
tp1363
I4867715
s(g4
g4
g3
tp1364
I72275
s(g3
g3
g4
tp1365
I17709133
s(g3
g4
g4
tp1366
I927746
s(g4
g3
g3
tp1367
I304365
sg10
(g1361
g11
g12
tp1368
s(g4
g4
g4
tp1369
I51722
s(g4
g3
g4
tp1370
I71897
ssS'\xe5\x8d\x81\xe4\xba\x94\xe5\xa4\xa7'
p1371
(dp1372
(g18
g19
g18
tp1373
I4962900
s(g19
g19
g18
tp1374
I1831
s(g18
g18
g19
tp1375
I17577563
s(g18
g19
g19
tp1376
I932118
s(g19
g18
g18
tp1377
I128661
sg25
(g1371
g26
g27
tp1378
s(g19
g19
g19
tp1379
I3697
s(g19
g18
g19
tp1380
I9887
ssS'\xe4\xb9\x9d\xe5\xb1\x8a\xe5\x85\xa8\xe5\x9b\xbd\xe4\xba\xba\xe5\xa4\xa7'
p1381
(dp1382
(g3
g4
g3
tp1383
I4867703
s(g4
g4
g3
tp1384
I24071
s(g3
g3
g4
tp1385
I17709133
s(g3
g4
g4
tp1386
I927746
s(g4
g3
g3
tp1387
I20664
sg10
(g1381
g11
g12
tp1388
s(g4
g4
g4
tp1389
I15972
s(g4
g3
g4
tp1390
I29016
ssS'\xe8\xbd\xac\xe5\x8f\x98'
p1391
(dp1392
(g18
g19
g18
tp1393
I4962900
s(g19
g19
g18
tp1394
I92701
s(g18
g18
g19
tp1395
I17577555
s(g18
g19
g19
tp1396
I932191
s(g19
g18
g18
tp1397
I3555604
sg25
(g1391
g26
g27
tp1398
s(g19
g19
g19
tp1399
I54004
s(g19
g18
g19
tp1400
I257429
ssS'\xe6\x8e\xa8\xe5\x8a\xa8'
p1401
(dp1402
(g18
g19
g18
tp1403
I4963373
s(g19
g19
g18
tp1404
I124398
s(g18
g18
g19
tp1405
I17577555
s(g18
g19
g19
tp1406
I1380407
s(g19
g18
g18
tp1407
I5345488
sg25
(g1401
g26
g27
tp1408
s(g19
g19
g19
tp1409
I62387
s(g19
g18
g19
tp1410
I226403
ssS'\xe6\xb3\x95\xe6\xb2\xbb'
p1411
(dp1412
(g3
g4
g3
tp1413
I4867715
s(g4
g4
g3
tp1414
I63216
s(g3
g3
g4
tp1415
I17709133
s(g3
g4
g4
tp1416
I927746
s(g4
g3
g3
tp1417
I2209926
sg10
(g1411
g11
g12
tp1418
s(g4
g4
g4
tp1419
I39325
s(g4
g3
g4
tp1420
I108748
ssS'\xe5\x8f\x91\xe5\xb1\x95'
p1421
(dp1422
(g3
g4
g3
tp1423
I4867703
s(g4
g4
g3
tp1424
I740907
s(g3
g3
g4
tp1425
I17709133
s(g3
g4
g4
tp1426
I927746
s(g4
g3
g3
tp1427
I24849114
sg10
(g1421
g11
g12
tp1428
s(g4
g4
g4
tp1429
I125852
s(g4
g3
g4
tp1430
I1212926
ssS'\xe6\x8a\x97\xe7\x81\xbe\xe6\x95\x91\xe7\x81\xbe'
p1431
(dp1432
(g18
g19
g18
tp1433
I4962883
s(g19
g19
g18
tp1434
I42187
s(g18
g18
g19
tp1435
I18499080
s(g18
g19
g19
tp1436
I1380407
s(g19
g18
g18
tp1437
I306958
sg25
(g1431
g26
g27
tp1438
s(g19
g19
g19
tp1439
I15940
s(g19
g18
g19
tp1440
I60756
ss.