(dp0
S'\xe4\xbe\x9d\xe6\xb3\x95'
p1
(dp2
(S'?'
p3
S'+'
p4
g3
tp5
I140702
s(g4
g4
g3
tp6
I27550
s(g3
g3
g4
tp7
I396846
s(g3
g4
g4
tp8
I35946
s(g4
g3
g3
tp9
I4460234
sS'words'
p10
(g1
S'\xe8\xb5\x84\xe6\x9c\xac\xe4\xb8\xbb\xe4\xb9\x89'
p11
S'\xe7\xa4\xbe\xe4\xbc\x9a\xe4\xb8\xbb\xe4\xb9\x89'
p12
tp13
s(g4
g4
g4
tp14
I37354
s(g4
g3
g4
tp15
I58728
ssS'\xe8\xae\xb8\xe8\xbf\x90\xe9\xb8\xbf'
p16
(dp17
(S'?'
p18
S'+'
p19
g18
tp20
I545101
s(g19
g19
g18
tp21
I701
s(g18
g18
g19
tp22
I397577
s(g18
g19
g19
tp23
I53625
s(g19
g18
g18
tp24
I23979
sS'words'
p25
(g16
S'\xe8\xb5\x84\xe6\x9c\xac\xe4\xb8\xbb\xe4\xb9\x89'
p26
S'\xe7\xa4\xbe\xe4\xbc\x9a\xe4\xb8\xbb\xe4\xb9\x89'
p27
tp28
s(g19
g19
g19
tp29
I18
s(g19
g18
g19
tp30
I5318
ssS'\xe7\xbb\x8f\xe8\x90\xa5\xe7\xae\xa1\xe7\x90\x86\xe8\x80\x85'
p31
(dp32
(S'?'
p33
S'+'
p34
g33
tp35
I524847
s(g34
g34
g33
tp36
I4500
s(g33
g33
g34
tp37
I930748
s(g33
g34
g34
tp38
I164130
s(g34
g33
g33
tp39
I145157
sS'words'
p40
(g31
S'\xe8\xb5\x84\xe6\x9c\xac\xe4\xb8\xbb\xe4\xb9\x89'
p41
S'\xe7\xa4\xbe\xe4\xbc\x9a\xe4\xb8\xbb\xe4\xb9\x89'
p42
tp43
s(g34
g34
g34
tp44
I3467
s(g34
g33
g34
tp45
I19536
ssS'\xe5\x85\xa8\xe5\x85\x9a'
p46
(dp47
(g3
g4
g3
tp48
I140702
s(g4
g4
g3
tp49
I36087
s(g3
g3
g4
tp50
I396844
s(g3
g4
g4
tp51
I35946
s(g4
g3
g3
tp52
I106761
sg10
(g46
g11
g12
tp53
s(g4
g4
g4
tp54
I41645
s(g4
g3
g4
tp55
I31718
ssS'\xe7\xac\xac\xe5\x8d\x81\xe5\x85\xad\xe6\xac\xa1'
p56
(dp57
(g18
g19
g18
tp58
I545101
s(g19
g19
g18
tp59
I1270
s(g18
g18
g19
tp60
I397577
s(g18
g19
g19
tp61
I53625
s(g19
g18
g18
tp62
I38965
sg25
(g56
g26
g27
tp63
s(g19
g19
g19
tp64
I669
s(g19
g18
g19
tp65
I3335
ssS'\xe5\x8a\xa0\xe5\xbf\xab'
p66
(dp67
(g33
g34
g33
tp68
I524847
s(g34
g34
g33
tp69
I63182
s(g33
g33
g34
tp70
I930748
s(g33
g34
g34
tp71
I164130
s(g34
g33
g33
tp72
I5128605
sg40
(g66
g41
g42
tp73
s(g34
g34
g34
tp74
I39444
s(g34
g33
g34
tp75
I170303
ssS'\xe5\xb0\xb1\xe4\xb8\x9a'
p76
(dp77
(g3
g4
g3
tp78
I140702
s(g4
g4
g3
tp79
I28174
s(g3
g3
g4
tp80
I396844
s(g3
g4
g4
tp81
I38903
s(g4
g3
g3
tp82
I4259317
sg10
(g76
g11
g12
tp83
s(g4
g4
g4
tp84
I35119
s(g4
g3
g4
tp85
I32706
ssS'\xe5\x85\xa8\xe5\x9b\xbd\xe4\xba\xba\xe5\xa4\xa7'
p86
(dp87
(g3
g4
g3
tp88
I140702
s(g4
g4
g3
tp89
I25880
s(g3
g3
g4
tp90
I396844
s(g3
g4
g4
tp91
I36155
s(g4
g3
g3
tp92
I234725
sg10
(g86
g11
g12
tp93
s(g4
g4
g4
tp94
I18412
s(g4
g3
g4
tp95
I56914
ssS'\xe5\x88\xb6\xe5\xba\xa6'
p96
(dp97
(g3
g4
g3
tp98
I140702
s(g4
g4
g3
tp99
I92540
s(g3
g3
g4
tp100
I396844
s(g3
g4
g4
tp101
I35946
s(g4
g3
g3
tp102
I2319853
sg10
(g96
g11
g12
tp103
s(g4
g4
g4
tp104
I64414
s(g4
g3
g4
tp105
I228967
ssS'\xe6\x96\xb9\xe5\xbc\x8f'
p106
(dp107
(g3
g4
g3
tp108
I140702
s(g4
g4
g3
tp109
I109897
s(g3
g3
g4
tp110
I396844
s(g3
g4
g4
tp111
I35946
s(g4
g3
g3
tp112
I561235
sg10
(g106
g11
g12
tp113
s(g4
g4
g4
tp114
I60338
s(g4
g3
g4
tp115
I137244
ssS'\xe6\x94\xb9\xe9\x9d\xa9'
p116
(dp117
(g18
g19
g18
tp118
I545136
s(g19
g19
g18
tp119
I100225
s(g18
g18
g19
tp120
I397577
s(g18
g19
g19
tp121
I53625
s(g19
g18
g18
tp122
I9204876
sg25
(g116
g26
g27
tp123
s(g19
g19
g19
tp124
I74705
s(g19
g18
g19
tp125
I229398
ssS'\xe7\xbe\xa4\xe4\xbc\x97'
p126
(dp127
(g18
g19
g18
tp128
I545101
s(g19
g19
g18
tp129
I22756
s(g18
g18
g19
tp130
I397577
s(g18
g19
g19
tp131
I53625
s(g19
g18
g18
tp132
I1036764
sg25
(g126
g26
g27
tp133
s(g19
g19
g19
tp134
I40352
s(g19
g18
g19
tp135
I51837
ssS'\xe4\xb8\x80\xe6\xac\xa1'
p136
(dp137
(g18
g19
g18
tp138
I545101
s(g19
g19
g18
tp139
I69301
s(g18
g18
g19
tp140
I397577
s(g18
g19
g19
tp141
I53625
s(g19
g18
g18
tp142
I5034860
sg25
(g136
g26
g27
tp143
s(g19
g19
g19
tp144
I41463
s(g19
g18
g19
tp145
I77289
ssS'\xe7\xb9\x81\xe8\x8d\xa3'
p146
(dp147
(g18
g19
g18
tp148
I545101
s(g19
g19
g18
tp149
I46600
s(g18
g18
g19
tp150
I397577
s(g18
g19
g19
tp151
I53625
s(g19
g18
g18
tp152
I252939
sg25
(g146
g26
g27
tp153
s(g19
g19
g19
tp154
I43733
s(g19
g18
g19
tp155
I55154
ssS'\xe5\x9f\x8e\xe4\xb9\xa1'
p156
(dp157
(g3
g4
g3
tp158
I140702
s(g4
g4
g3
tp159
I25713
s(g3
g3
g4
tp160
I396844
s(g3
g4
g4
tp161
I36155
s(g4
g3
g3
tp162
I1149710
sg10
(g156
g11
g12
tp163
s(g4
g4
g4
tp164
I30431
s(g4
g3
g4
tp165
I47659
ssS'\xe6\x80\x9d\xe6\x83\xb3'
p166
(dp167
(g18
g19
g18
tp168
I545101
s(g19
g19
g18
tp169
I40481
s(g18
g18
g19
tp170
I397577
s(g18
g19
g19
tp171
I53625
s(g19
g18
g18
tp172
I4968380
sg25
(g166
g26
g27
tp173
s(g19
g19
g19
tp174
I60750
s(g19
g18
g19
tp175
I236960
ssS'\xe7\x8e\xb0\xe4\xbb\xa3\xe5\x8c\x96'
p176
(dp177
(g3
g4
g3
tp178
I152693
s(g4
g4
g3
tp179
I50777
s(g3
g3
g4
tp180
I396844
s(g3
g4
g4
tp181
I35946
s(g4
g3
g3
tp182
I9586730
sg10
(g176
g11
g12
tp183
s(g4
g4
g4
tp184
I35020
s(g4
g3
g4
tp185
I65201
ssS'\xe6\x9c\xba\xe5\x88\xb6'
p186
(dp187
(g18
g19
g18
tp188
I545101
s(g19
g19
g18
tp189
I81368
s(g18
g18
g19
tp190
I397577
s(g18
g19
g19
tp191
I38903
s(g19
g18
g18
tp192
I3570044
sg25
(g186
g26
g27
tp193
s(g19
g19
g19
tp194
I47048
s(g19
g18
g19
tp195
I79701
ssS'\xe4\xb8\xad\xe5\xa4\xae\xe5\xa7\x94\xe5\x91\x98\xe4\xbc\x9a'
p196
(dp197
(g3
g4
g3
tp198
I95767
s(g4
g4
g3
tp199
I13669
s(g3
g3
g4
tp200
I398029
s(g3
g4
g4
tp201
I36155
s(g4
g3
g3
tp202
I30927
sg10
(g196
g11
g12
tp203
s(g4
g4
g4
tp204
I13680
s(g4
g3
g4
tp205
I21603
ssS'\xe5\x92\x8c\xe8\xb0\x90\xe7\xa4\xbe\xe4\xbc\x9a'
p206
(dp207
(g3
g4
g3
tp208
I95767
s(g4
g4
g3
tp209
I9994
s(g3
g3
g4
tp210
I398029
s(g3
g4
g4
tp211
I36155
s(g4
g3
g3
tp212
I766221
sg10
(g206
g11
g12
tp213
s(g4
g4
g4
tp214
I7861
s(g4
g3
g4
tp215
I80050
ssS'\xe4\xbd\x93\xe7\xb3\xbb'
p216
(dp217
(S'?'
p218
S'+'
p219
g218
tp220
I288544
s(g219
g219
g218
tp221
I68671
s(g218
g218
g219
tp222
I397919
s(g218
g219
g219
tp223
I152145
s(g219
g218
g218
tp224
I4943552
sS'words'
p225
(g216
S'\xe8\xb5\x84\xe6\x9c\xac\xe4\xb8\xbb\xe4\xb9\x89'
p226
S'\xe7\xa4\xbe\xe4\xbc\x9a\xe4\xb8\xbb\xe4\xb9\x89'
p227
tp228
s(g219
g219
g219
tp229
I54245
s(g219
g218
g219
tp230
I286601
ssS'\xe5\x86\x9b\xe9\x98\x9f'
p231
(dp232
(g33
g34
g33
tp233
I524847
s(g34
g34
g33
tp234
I79175
s(g33
g33
g34
tp235
I930748
s(g33
g34
g34
tp236
I164130
s(g34
g33
g33
tp237
I231316
sg40
(g231
g41
g42
tp238
s(g34
g34
g34
tp239
I41181
s(g34
g33
g34
tp240
I51376
ssS'\xe5\x85\x9a\xe7\x9a\x84\xe5\xbb\xba\xe8\xae\xbe'
p241
(dp242
(S'?'
p243
S'+'
p244
g243
tp245
I288544
s(g244
g244
g243
tp246
I54720
s(g243
g243
g244
tp247
I397919
s(g243
g244
g244
tp248
I152177
s(g244
g243
g243
tp249
I172940
sS'words'
p250
(g241
S'\xe8\xb5\x84\xe6\x9c\xac\xe4\xb8\xbb\xe4\xb9\x89'
p251
S'\xe7\xa4\xbe\xe4\xbc\x9a\xe4\xb8\xbb\xe4\xb9\x89'
p252
tp253
s(g244
g244
g244
tp254
I52388
s(g244
g243
g244
tp255
I102610
ssS'\xe5\xb8\x82\xe5\x9c\xba'
p256
(dp257
(g218
g219
g218
tp258
I288544
s(g219
g219
g218
tp259
I103077
s(g218
g218
g219
tp260
I397919
s(g218
g219
g219
tp261
I152145
s(g219
g218
g218
tp262
I33210128
sg225
(g256
g226
g227
tp263
s(g219
g219
g219
tp264
I45742
s(g219
g218
g219
tp265
I2617515
ssS'\xe5\x8d\x81\xe5\x85\xad\xe5\xa4\xa7'
p266
(dp267
(g33
g34
g33
tp268
I524847
s(g34
g34
g33
tp269
I25464
s(g33
g33
g34
tp270
I930748
s(g33
g34
g34
tp271
I164130
s(g34
g33
g33
tp272
I75051
sg40
(g266
g41
g42
tp273
s(g34
g34
g34
tp274
I11747
s(g34
g33
g34
tp275
I43632
ssS'\xe4\xbf\x83\xe8\xbf\x9b'
p276
(dp277
(g3
g4
g3
tp278
I140702
s(g4
g4
g3
tp279
I45600
s(g3
g3
g4
tp280
I396844
s(g3
g4
g4
tp281
I35946
s(g4
g3
g3
tp282
I5298274
sg10
(g276
g11
g12
tp283
s(g4
g4
g4
tp284
I51714
s(g4
g3
g4
tp285
I225039
ssS'\xe6\x94\xbf\xe6\xb2\xbb\xe6\x96\x87\xe6\x98\x8e'
p286
(dp287
(g243
g244
g243
tp288
I288599
s(g244
g244
g243
tp289
I7479
s(g243
g243
g244
tp290
I397919
s(g243
g244
g244
tp291
I152145
s(g244
g243
g243
tp292
I77255
sg250
(g286
g251
g252
tp293
s(g244
g244
g244
tp294
I9581
s(g244
g243
g244
tp295
I28823
ssS'\xe5\x8d\x8f\xe8\xb0\x83'
p296
(dp297
(g18
g19
g18
tp298
I152693
s(g19
g19
g18
tp299
I32366
s(g18
g18
g19
tp300
I397577
s(g18
g19
g19
tp301
I38903
s(g19
g18
g18
tp302
I525409
sg25
(g296
g26
g27
tp303
s(g19
g19
g19
tp304
I35446
s(g19
g18
g19
tp305
I36270
ssS'\xe5\x86\x9c\xe6\x9d\x91'
p306
(dp307
(g243
g244
g243
tp308
I288544
s(g244
g244
g243
tp309
I79120
s(g243
g243
g244
tp310
I397919
s(g243
g244
g244
tp311
I152145
s(g244
g243
g243
tp312
I11104022
sg250
(g306
g251
g252
tp313
s(g244
g244
g244
tp314
I45112
s(g244
g243
g244
tp315
I366161
ssS'\xe6\x95\x99\xe8\x82\xb2'
p316
(dp317
(g243
g244
g243
tp318
I288544
s(g244
g244
g243
tp319
I102691
s(g243
g243
g244
tp320
I397919
s(g243
g244
g244
tp321
I152145
s(g244
g243
g243
tp322
I64570004
sg250
(g316
g251
g252
tp323
s(g244
g244
g244
tp324
I27760
s(g244
g243
g244
tp325
I390105
ssS'\xe5\x8d\x81\xe4\xba\x8c\xe5\xb1\x8a'
p326
(dp327
(g3
g4
g3
tp328
I95767
s(g4
g4
g3
tp329
I8850
s(g3
g3
g4
tp330
I396844
s(g3
g4
g4
tp331
I36155
s(g4
g3
g3
tp332
I214128
sg10
(g326
g11
g12
tp333
s(g4
g4
g4
tp334
I9930
s(g4
g3
g4
tp335
I35096
ssS'\xe7\xbb\x8f\xe6\xb5\x8e\xe4\xbd\x93\xe5\x88\xb6'
p336
(dp337
(g33
g34
g33
tp338
I524847
s(g34
g34
g33
tp339
I22693
s(g33
g33
g34
tp340
I930748
s(g33
g34
g34
tp341
I164130
s(g34
g33
g33
tp342
I115722
sg40
(g336
g41
g42
tp343
s(g34
g34
g34
tp344
I27796
s(g34
g33
g34
tp345
I21716
ssS'\xe6\x88\x98\xe7\x95\xa5'
p346
(dp347
(g18
g19
g18
tp348
I545101
s(g19
g19
g18
tp349
I37066
s(g18
g18
g19
tp350
I397577
s(g18
g19
g19
tp351
I53625
s(g19
g18
g18
tp352
I3325473
sg25
(g346
g26
g27
tp353
s(g19
g19
g19
tp354
I37659
s(g19
g18
g19
tp355
I59490
ssS'\xe7\x94\x9f\xe4\xba\xa7\xe5\x8a\x9b'
p356
(dp357
(g3
g4
g3
tp358
I140702
s(g4
g4
g3
tp359
I37984
s(g3
g3
g4
tp360
I396844
s(g3
g4
g4
tp361
I35946
s(g4
g3
g3
tp362
I448310
sg10
(g356
g11
g12
tp363
s(g4
g4
g4
tp364
I37639
s(g4
g3
g4
tp365
I40226
ssS'\xe4\xbc\x9f\xe5\xa4\xa7\xe6\x97\x97\xe5\xb8\x9c'
p366
(dp367
(g33
g34
g33
tp368
I524847
s(g34
g34
g33
tp369
I16252
s(g33
g33
g34
tp370
I930748
s(g33
g34
g34
tp371
I164130
s(g34
g33
g33
tp372
I44851
sg40
(g366
g41
g42
tp373
s(g34
g34
g34
tp374
I19853
s(g34
g33
g34
tp375
I69214
ssS'\xe5\x8f\xb8\xe6\xb3\x95'
p376
(dp377
(g3
g4
g3
tp378
I140702
s(g4
g4
g3
tp379
I33578
s(g3
g3
g4
tp380
I396844
s(g3
g4
g4
tp381
I35946
s(g4
g3
g3
tp382
I2342705
sg10
(g376
g11
g12
tp383
s(g4
g4
g4
tp384
I27442
s(g4
g3
g4
tp385
I42923
ssS'\xe5\xa2\x9e\xe5\xbc\xba'
p386
(dp387
(g3
g4
g3
tp388
I140702
s(g4
g4
g3
tp389
I81873
s(g3
g3
g4
tp390
I396844
s(g3
g4
g4
tp391
I35946
s(g4
g3
g3
tp392
I698263
sg10
(g386
g11
g12
tp393
s(g4
g4
g4
tp394
I49806
s(g4
g3
g4
tp395
I143511
ssS'\xe5\x88\x9b\xe6\x96\xb0'
p396
(dp397
(g218
g219
g218
tp398
I288544
s(g219
g219
g218
tp399
I30558
s(g218
g218
g219
tp400
I397919
s(g218
g219
g219
tp401
I152145
s(g219
g218
g218
tp402
I3406497
sg225
(g396
g226
g227
tp403
s(g219
g219
g219
tp404
I33579
s(g219
g218
g219
tp405
I44817
ssS'\xe5\x90\x8c\xe5\xbf\x97'
p406
(dp407
(g18
g19
g18
tp408
I545101
s(g19
g19
g18
tp409
I30633
s(g18
g18
g19
tp410
I397577
s(g18
g19
g19
tp411
I53625
s(g19
g18
g18
tp412
I1177063
sg25
(g406
g26
g27
tp413
s(g19
g19
g19
tp414
I44309
s(g19
g18
g19
tp415
I52238
ssS'\xe8\x81\x8c\xe8\x83\xbd'
p416
(dp417
(g18
g19
g18
tp418
I545101
s(g19
g19
g18
tp419
I26132
s(g18
g18
g19
tp420
I397577
s(g18
g19
g19
tp421
I53625
s(g19
g18
g18
tp422
I24690085
sg25
(g416
g26
g27
tp423
s(g19
g19
g19
tp424
I19763
s(g19
g18
g19
tp425
I43309
ssS'\xe5\x86\x9c\xe6\xb0\x91'
p426
(dp427
(g3
g4
g3
tp428
I95767
s(g4
g4
g3
tp429
I46584
s(g3
g3
g4
tp430
I398029
s(g3
g4
g4
tp431
I36155
s(g4
g3
g3
tp432
I2561927
sg10
(g426
g11
g12
tp433
s(g4
g4
g4
tp434
I48150
s(g4
g3
g4
tp435
I24499
ssS'\xe5\x85\xa8\xe5\x9b\xbd\xe6\x94\xbf\xe5\x8d\x8f'
p436
(dp437
(g3
g4
g3
tp438
I140702
s(g4
g4
g3
tp439
I18838
s(g3
g3
g4
tp440
I396844
s(g3
g4
g4
tp441
I35946
s(g4
g3
g3
tp442
I3982861
sg10
(g436
g11
g12
tp443
s(g4
g4
g4
tp444
I12845
s(g4
g3
g4
tp445
I54412
ssS'\xe5\x8d\x81\xe5\xb1\x8a'
p446
(dp447
(g218
g219
g218
tp448
I288544
s(g219
g219
g218
tp449
I5113
s(g218
g218
g219
tp450
I397919
s(g218
g219
g219
tp451
I152145
s(g219
g218
g218
tp452
I650463
sg225
(g446
g226
g227
tp453
s(g219
g219
g219
tp454
I2511
s(g219
g218
g219
tp455
I12537
ssS'\xe5\x8d\x81\xe4\xb8\x80\xe4\xba\x94'
p456
(dp457
(g18
g19
g18
tp458
I545101
s(g19
g19
g18
tp459
I3961
s(g18
g18
g19
tp460
I397577
s(g18
g19
g19
tp461
I53625
s(g19
g18
g18
tp462
I317183
sg25
(g456
g26
g27
tp463
s(g19
g19
g19
tp464
I2973
s(g19
g18
g19
tp465
I24410
ssS'\xe9\x82\x93\xe5\xb0\x8f\xe5\xb9\xb3\xe7\x90\x86\xe8\xae\xba'
p466
(dp467
(g218
g219
g218
tp468
I288544
s(g219
g219
g218
tp469
I24798
s(g218
g218
g219
tp470
I397919
s(g218
g219
g219
tp471
I152177
s(g219
g218
g218
tp472
I119288
sg225
(g466
g226
g227
tp473
s(g219
g219
g219
tp474
I31814
s(g219
g218
g219
tp475
I59272
ssS'\xe4\xb8\x89\xe4\xb8\xaa\xe4\xbb\xa3\xe8\xa1\xa8'
p476
(dp477
(g3
g4
g3
tp478
I140702
s(g4
g4
g3
tp479
I41526
s(g3
g3
g4
tp480
I396846
s(g3
g4
g4
tp481
I35946
s(g4
g3
g3
tp482
I177736
sg10
(g476
g11
g12
tp483
s(g4
g4
g4
tp484
I31910
s(g4
g3
g4
tp485
I45789
ssS'\xe5\x8f\x91\xe5\xb1\x95\xe8\xa7\x82'
p486
(dp487
(g243
g244
g243
tp488
I288544
s(g244
g244
g243
tp489
I30764
s(g243
g243
g244
tp490
I397919
s(g243
g244
g244
tp491
I152145
s(g244
g243
g243
tp492
I153054
sg250
(g486
g251
g252
tp493
s(g244
g244
g244
tp494
I27719
s(g244
g243
g244
tp495
I156665
ssS'\xe4\xb9\x9d\xe5\xb1\x8a'
p496
(dp497
(g243
g244
g243
tp498
I288599
s(g244
g244
g243
tp499
I3631
s(g243
g243
g244
tp500
I397919
s(g243
g244
g244
tp501
I152145
s(g244
g243
g243
tp502
I209000
sg250
(g496
g251
g252
tp503
s(g244
g244
g244
tp504
I4065
s(g244
g243
g244
tp505
I25053
ssS'\xe5\x8d\x81\xe4\xb8\x80\xe5\xb1\x8a'
p506
(dp507
(g33
g34
g33
tp508
I524847
s(g34
g34
g33
tp509
I52728
s(g33
g33
g34
tp510
I930746
s(g33
g34
g34
tp511
I164116
s(g34
g33
g33
tp512
I75170
sg40
(g506
g41
g42
tp513
s(g34
g34
g34
tp514
I50792
s(g34
g33
g34
tp515
I39243
ssS'\xe5\xa7\x8b\xe7\xbb\x88'
p516
(dp517
(g33
g34
g33
tp518
I524847
s(g34
g34
g33
tp519
I46926
s(g33
g33
g34
tp520
I930748
s(g33
g34
g34
tp521
I164130
s(g34
g33
g33
tp522
I1079624
sg40
(g516
g41
g42
tp523
s(g34
g34
g34
tp524
I47052
s(g34
g33
g34
tp525
I42274
ssS'\xe7\xbb\x9f\xe7\xad\xb9'
p526
(dp527
(g3
g4
g3
tp528
I140702
s(g4
g4
g3
tp529
I8856
s(g3
g3
g4
tp530
I396844
s(g3
g4
g4
tp531
I35946
s(g4
g3
g3
tp532
I1479556
sg10
(g526
g11
g12
tp533
s(g4
g4
g4
tp534
I27815
s(g4
g3
g4
tp535
I47640
ssS'\xe7\xac\xac\xe5\x8d\x81\xe5\x85\xad\xe5\xb1\x8a'
p536
(dp537
(g33
g34
g33
tp538
I524847
s(g34
g34
g33
tp539
I8268
s(g33
g33
g34
tp540
I930748
s(g33
g34
g34
tp541
I164130
s(g34
g33
g33
tp542
I1186447
sg40
(g536
g41
g42
tp543
s(g34
g34
g34
tp544
I7965
s(g34
g33
g34
tp545
I18694
ssS'\xe5\xbf\x85\xe9\xa1\xbb'
p546
(dp547
(g243
g244
g243
tp548
I288544
s(g244
g244
g243
tp549
I77197
s(g243
g243
g244
tp550
I397919
s(g243
g244
g244
tp551
I152145
s(g244
g243
g243
tp552
I3887610
sg250
(g546
g251
g252
tp553
s(g244
g244
g244
tp554
I43897
s(g244
g243
g244
tp555
I81501
ssS'\xe8\xa1\x8c\xe6\x94\xbf'
p556
(dp557
(g18
g19
g18
tp558
I545101
s(g19
g19
g18
tp559
I27900
s(g18
g18
g19
tp560
I397577
s(g18
g19
g19
tp561
I53625
s(g19
g18
g18
tp562
I1487453
sg25
(g556
g26
g27
tp563
s(g19
g19
g19
tp564
I39571
s(g19
g18
g19
tp565
I46400
ssS'\xe5\x86\x9c\xe4\xb8\x9a'
p566
(dp567
(g3
g4
g3
tp568
I95767
s(g4
g4
g3
tp569
I44979
s(g3
g3
g4
tp570
I396844
s(g3
g4
g4
tp571
I36155
s(g4
g3
g3
tp572
I8844859
sg10
(g566
g11
g12
tp573
s(g4
g4
g4
tp574
I42081
s(g4
g3
g4
tp575
I45119
ssS'\xe6\x9e\x84\xe5\xbb\xba'
p576
(dp577
(g3
g4
g3
tp578
I140702
s(g4
g4
g3
tp579
I45338
s(g3
g3
g4
tp580
I396844
s(g3
g4
g4
tp581
I35946
s(g4
g3
g3
tp582
I912775
sg10
(g576
g11
g12
tp583
s(g4
g4
g4
tp584
I40311
s(g4
g3
g4
tp585
I172724983
ssS'\xe4\xbd\x9c\xe9\xa3\x8e'
p586
(dp587
(g3
g4
g3
tp588
I95767
s(g4
g4
g3
tp589
I27484
s(g3
g3
g4
tp590
I398029
s(g3
g4
g4
tp591
I36155
s(g4
g3
g3
tp592
I3486124
sg10
(g586
g11
g12
tp593
s(g4
g4
g4
tp594
I39218
s(g4
g3
g4
tp595
I36401
ssS'\xe4\xbc\x81\xe4\xb8\x9a'
p596
(dp597
(g3
g4
g3
tp598
I140918
s(g4
g4
g3
tp599
I89581
s(g3
g3
g4
tp600
I398029
s(g3
g4
g4
tp601
I36155
s(g4
g3
g3
tp602
I75329376
sg10
(g596
g11
g12
tp603
s(g4
g4
g4
tp604
I63173
s(g4
g3
g4
tp605
I80439
ssS'\xe4\xba\x8b\xe4\xb8\x9a'
p606
(dp607
(g3
g4
g3
tp608
I140702
s(g4
g4
g3
tp609
I30540
s(g3
g3
g4
tp610
I396844
s(g3
g4
g4
tp611
I36155
s(g4
g3
g3
tp612
I18936849
sg10
(g606
g11
g12
tp613
s(g4
g4
g4
tp614
I52533
s(g4
g3
g4
tp615
I138862
ssS'\xe7\x89\xb9\xe8\x89\xb2'
p616
(dp617
(g33
g34
g33
tp618
I524847
s(g34
g34
g33
tp619
I81989
s(g33
g33
g34
tp620
I930748
s(g33
g34
g34
tp621
I164130
s(g34
g33
g33
tp622
I8115921
sg40
(g616
g41
g42
tp623
s(g34
g34
g34
tp624
I65794
s(g34
g33
g34
tp625
I328890
ssS'\xe4\xba\xba\xe6\xb0\x91'
p626
(dp627
(g3
g4
g3
tp628
I95766
s(g4
g4
g3
tp629
I66611
s(g3
g3
g4
tp630
I396844
s(g3
g4
g4
tp631
I35946
s(g4
g3
g3
tp632
I28894155
sg10
(g626
g11
g12
tp633
s(g4
g4
g4
tp634
I62258
s(g4
g3
g4
tp635
I217221
ssS'\xe7\xb2\xbe\xe7\xa5\x9e'
p636
(dp637
(g3
g4
g3
tp638
I95766
s(g4
g4
g3
tp639
I46218
s(g3
g3
g4
tp640
I398029
s(g3
g4
g4
tp641
I36155
s(g4
g3
g3
tp642
I4184338
sg10
(g636
g11
g12
tp643
s(g4
g4
g4
tp644
I53550
s(g4
g3
g4
tp645
I104823
ssS'\xe5\x90\x8d\xe5\x8d\x95'
p646
(dp647
(g243
g244
g243
tp648
I288599
s(g244
g244
g243
tp649
I19761
s(g243
g243
g244
tp650
I397919
s(g243
g244
g244
tp651
I152145
s(g244
g243
g243
tp652
I9100051
sg250
(g646
g251
g252
tp653
s(g244
g244
g244
tp654
I23208
s(g244
g243
g244
tp655
I29015
ssS'\xe5\x8d\x81\xe4\xb8\x83'
p656
(dp657
(g243
g244
g243
tp658
I288544
s(g244
g244
g243
tp659
I41830
s(g243
g243
g244
tp660
I397919
s(g243
g244
g244
tp661
I152145
s(g244
g243
g243
tp662
I1680942
sg250
(g656
g251
g252
tp663
s(g244
g244
g244
tp664
I30821
s(g244
g243
g244
tp665
I20382
ssS'\xe4\xbd\x93\xe5\x88\xb6'
p666
(dp667
(g33
g34
g33
tp668
I524847
s(g34
g34
g33
tp669
I78734
s(g33
g33
g34
tp670
I930748
s(g33
g34
g34
tp671
I164130
s(g34
g33
g33
tp672
I2173968
sg40
(g666
g41
g42
tp673
s(g34
g34
g34
tp674
I52717
s(g34
g33
g34
tp675
I195678
ssS'\xe5\x92\x8c\xe8\xb0\x90'
p676
(dp677
(g243
g244
g243
tp678
I288544
s(g244
g244
g243
tp679
I35618
s(g243
g243
g244
tp680
I397919
s(g243
g244
g244
tp681
I152145
s(g244
g243
g243
tp682
I1066772
sg250
(g676
g251
g252
tp683
s(g244
g244
g244
tp684
I34448
s(g244
g243
g244
tp685
I134006
ssS'\xe6\xb0\x91\xe4\xb8\xbb'
p686
(dp687
(g218
g219
g218
tp688
I288544
s(g219
g219
g218
tp689
I43524
s(g218
g218
g219
tp690
I397919
s(g218
g219
g219
tp691
I152145
s(g219
g218
g218
tp692
I1030389
sg225
(g686
g226
g227
tp693
s(g219
g219
g219
tp694
I40361
s(g219
g218
g219
tp695
I114507
ssS'\xe6\x94\xbf\xe6\xb2\xbb'
p696
(dp697
(g33
g34
g33
tp698
I524847
s(g34
g34
g33
tp699
I81364
s(g33
g33
g34
tp700
I930748
s(g33
g34
g34
tp701
I164130
s(g34
g33
g33
tp702
I7140555
sg40
(g696
g41
g42
tp703
s(g34
g34
g34
tp704
I49381
s(g34
g33
g34
tp705
I90212
ssS'\xe6\x96\x87\xe5\x8c\x96'
p706
(dp707
(g3
g4
g3
tp708
I140702
s(g4
g4
g3
tp709
I101836
s(g3
g3
g4
tp710
I396844
s(g3
g4
g4
tp711
I35946
s(g4
g3
g3
tp712
I11460640
sg10
(g706
g11
g12
tp713
s(g4
g4
g4
tp714
I71305
s(g4
g3
g4
tp715
I161652
ssS'\xe4\xbf\x9d\xe6\x8c\x81'
p716
(dp717
(g3
g4
g3
tp718
I140702
s(g4
g4
g3
tp719
I83522
s(g3
g3
g4
tp720
I396844
s(g3
g4
g4
tp721
I35946
s(g4
g3
g3
tp722
I2551548
sg10
(g716
g11
g12
tp723
s(g4
g4
g4
tp724
I56656
s(g4
g3
g4
tp725
I104995
ssS'\xe5\xae\x9e\xe6\x96\xbd'
p726
(dp727
(g18
g19
g18
tp728
I545101
s(g19
g19
g18
tp729
I93891
s(g18
g18
g19
tp730
I397577
s(g18
g19
g19
tp731
I53625
s(g19
g18
g18
tp732
I5152890
sg25
(g726
g26
g27
tp733
s(g19
g19
g19
tp734
I53884
s(g19
g18
g19
tp735
I218748
ssS'\xe6\xb1\x9f\xe6\xb3\xbd\xe6\xb0\x91'
p736
(dp737
(g3
g4
g3
tp738
I95767
s(g4
g4
g3
tp739
I12248
s(g3
g3
g4
tp740
I398029
s(g3
g4
g4
tp741
I36155
s(g4
g3
g3
tp742
I83751
sg10
(g736
g11
g12
tp743
s(g4
g4
g4
tp744
I11518
s(g4
g3
g4
tp745
I27887
ssS'\xe6\x9c\xba\xe6\x9e\x84'
p746
(dp747
(g243
g244
g243
tp748
I288544
s(g244
g244
g243
tp749
I98898
s(g243
g243
g244
tp750
I397919
s(g243
g244
g244
tp751
I152145
s(g244
g243
g243
tp752
I7619633
sg250
(g746
g251
g252
tp753
s(g244
g244
g244
tp754
I43198
s(g244
g243
g244
tp755
I150815
ssS'\xe5\x9b\xbd\xe6\x9c\x89\xe7\xbb\x8f\xe6\xb5\x8e'
p756
(dp757
(g18
g19
g18
tp758
I545101
s(g19
g19
g18
tp759
I6616
s(g18
g18
g19
tp760
I397577
s(g18
g19
g19
tp761
I53625
s(g19
g18
g18
tp762
I347331
sg25
(g756
g26
g27
tp763
s(g19
g19
g19
tp764
I6117
s(g19
g18
g19
tp765
I25985
ssS'\xe5\xb0\x8f\xe5\xba\xb7\xe7\xa4\xbe\xe4\xbc\x9a'
p766
(dp767
(g243
g244
g243
tp768
I288544
s(g244
g244
g243
tp769
I14548
s(g243
g243
g244
tp770
I397919
s(g243
g244
g244
tp771
I152145
s(g244
g243
g243
tp772
I205176
sg250
(g766
g251
g252
tp773
s(g244
g244
g244
tp774
I13822
s(g244
g243
g244
tp775
I66584
ssS'\xe6\x88\x91\xe5\x9b\xbd'
p776
(dp777
(g33
g34
g33
tp778
I524847
s(g34
g34
g33
tp779
I49473
s(g33
g33
g34
tp780
I930748
s(g33
g34
g34
tp781
I164130
s(g34
g33
g33
tp782
I616523
sg40
(g776
g41
g42
tp783
s(g34
g34
g34
tp784
I28378
s(g34
g33
g34
tp785
I7761001
ssS'\xe7\xa4\xbe\xe4\xbc\x9a'
p786
(dp787
(g18
g19
g18
tp788
I545101
s(g19
g19
g18
tp789
I178799
s(g18
g18
g19
tp790
I397577
s(g18
g19
g19
tp791
I53625
s(g19
g18
g18
tp792
I12345141
sg25
(g786
g26
g27
tp793
s(g19
g19
g19
tp794
I133484
s(g19
g18
g19
tp795
I983865
ssS'\xe5\x90\x84\xe6\x97\x8f\xe4\xba\xba\xe6\xb0\x91'
p796
(dp797
(g218
g219
g218
tp798
I288544
s(g219
g219
g218
tp799
I38871
s(g218
g218
g219
tp800
I397919
s(g218
g219
g219
tp801
I152145
s(g219
g218
g218
tp802
I67351
sg225
(g796
g226
g227
tp803
s(g219
g219
g219
tp804
I38937
s(g219
g218
g219
tp805
I58594
ssS'\xe7\xa4\xbe\xe4\xbc\x9a\xe4\xb8\xbb\xe4\xb9\x89'
p806
(dp807
(g243
g244
g243
tp808
I288544
s(g244
g244
g243
tp809
I153927
s(g243
g243
g244
tp810
I397919
s(g243
g244
g244
tp811
I152177
s(g244
g243
g243
tp812
I397919
sg250
(g806
g251
g252
tp813
s(g244
g244
g244
tp814
I188314
s(g244
g243
g244
tp815
I1267687
ssS'\xe9\x87\x8d\xe7\x82\xb9'
p816
(dp817
(g3
g4
g3
tp818
I140702
s(g4
g4
g3
tp819
I60681
s(g3
g3
g4
tp820
I396844
s(g3
g4
g4
tp821
I36155
s(g4
g3
g3
tp822
I3371535
sg10
(g816
g11
g12
tp823
s(g4
g4
g4
tp824
I43793
s(g4
g3
g4
tp825
I136671
ssS'\xe7\xbb\x8f\xe6\xb5\x8e'
p826
(dp827
(g3
g4
g3
tp828
I95767
s(g4
g4
g3
tp829
I144412
s(g3
g3
g4
tp830
I398029
s(g3
g4
g4
tp831
I36155
s(g4
g3
g3
tp832
I44562412
sg10
(g826
g11
g12
tp833
s(g4
g4
g4
tp834
I49532
s(g4
g3
g4
tp835
I631862
ssS'\xe5\x9f\xba\xe6\x9c\xac'
p836
(dp837
(g33
g34
g33
tp838
I524847
s(g34
g34
g33
tp839
I106637
s(g33
g33
g34
tp840
I930748
s(g33
g34
g34
tp841
I164130
s(g34
g33
g33
tp842
I4603507
sg40
(g836
g41
g42
tp843
s(g34
g34
g34
tp844
I115356
s(g34
g33
g34
tp845
I354858
ssS'\xe9\x9d\x9e\xe5\x85\xac\xe6\x9c\x89\xe5\x88\xb6'
p846
(dp847
(g3
g4
g3
tp848
I140702
s(g4
g4
g3
tp849
I14548
s(g3
g3
g4
tp850
I396844
s(g3
g4
g4
tp851
I35946
s(g4
g3
g3
tp852
I162885
sg10
(g846
g11
g12
tp853
s(g4
g4
g4
tp854
I15274
s(g4
g3
g4
tp855
I46633
ssS'\xe7\xae\xa1\xe7\x90\x86\xe4\xbd\x93\xe5\x88\xb6'
p856
(dp857
(g33
g34
g33
tp858
I524847
s(g34
g34
g33
tp859
I12041
s(g33
g33
g34
tp860
I930748
s(g33
g34
g34
tp861
I164130
s(g34
g33
g33
tp862
I495309
sg40
(g856
g41
g42
tp863
s(g34
g34
g34
tp864
I9985
s(g34
g33
g34
tp865
I35852
ssS'\xe4\xbe\x9d\xe6\xb3\x95\xe6\xb2\xbb\xe5\x9b\xbd'
p866
(dp867
(g218
g219
g218
tp868
I288544
s(g219
g219
g218
tp869
I13031
s(g218
g218
g219
tp870
I397919
s(g218
g219
g219
tp871
I152145
s(g219
g218
g218
tp872
I333715
sg225
(g866
g226
g227
tp873
s(g219
g219
g219
tp874
I24413
s(g219
g218
g219
tp875
I57680
ssS'\xe7\xac\xac\xe5\x8d\x81\xe4\xba\x94\xe5\xb1\x8a'
p876
(dp877
(g3
g4
g3
tp878
I140702
s(g4
g4
g3
tp879
I2811
s(g3
g3
g4
tp880
I396846
s(g3
g4
g4
tp881
I35946
s(g4
g3
g3
tp882
I279010
sg10
(g876
g11
g12
tp883
s(g4
g4
g4
tp884
I2396
s(g4
g3
g4
tp885
I5564
ssS'\xe8\x83\xbd\xe5\x8a\x9b'
p886
(dp887
(g18
g19
g18
tp888
I545101
s(g19
g19
g18
tp889
I34041
s(g18
g18
g19
tp890
I397577
s(g18
g19
g19
tp891
I38903
s(g19
g18
g18
tp892
I1498739
sg25
(g886
g26
g27
tp893
s(g19
g19
g19
tp894
I41231
s(g19
g18
g19
tp895
I37708
ssS'\xe5\xb7\xa5\xe4\xbd\x9c'
p896
(dp897
(g18
g19
g18
tp898
I545136
s(g19
g19
g18
tp899
I38241
s(g18
g18
g19
tp900
I397577
s(g18
g19
g19
tp901
I38903
s(g19
g18
g18
tp902
I29430182
sg25
(g896
g26
g27
tp903
s(g19
g19
g19
tp904
I36995
s(g19
g18
g19
tp905
I147433
ssS'\xe4\xb9\xa0\xe8\xbf\x91\xe5\xb9\xb3'
p906
(dp907
(g3
g4
g3
tp908
I140702
s(g4
g4
g3
tp909
I3994
s(g3
g3
g4
tp910
I396844
s(g3
g4
g4
tp911
I35946
s(g4
g3
g3
tp912
I701896
sg10
(g906
g11
g12
tp913
s(g4
g4
g4
tp914
I4347
s(g4
g3
g4
tp915
I19829
ssS'\xe6\xb3\x95\xe5\xbe\x8b'
p916
(dp917
(g33
g34
g33
tp918
I524847
s(g34
g34
g33
tp919
I42651
s(g33
g33
g34
tp920
I930748
s(g33
g34
g34
tp921
I164130
s(g34
g33
g33
tp922
I13928806
sg40
(g916
g41
g42
tp923
s(g34
g34
g34
tp924
I44550
s(g34
g33
g34
tp925
I173380
ssS'\xe5\x85\x9a\xe7\x9a\x84\xe9\xa2\x86\xe5\xaf\xbc'
p926
(dp927
(g33
g34
g33
tp928
I524847
s(g34
g34
g33
tp929
I60044
s(g33
g33
g34
tp930
I930748
s(g33
g34
g34
tp931
I164130
s(g34
g33
g33
tp932
I194062
sg40
(g926
g41
g42
tp933
s(g34
g34
g34
tp934
I50991
s(g34
g33
g34
tp935
I110893
ssS'\xe6\x96\x87\xe5\x8c\x96\xe4\xba\xa7\xe4\xb8\x9a'
p936
(dp937
(g3
g4
g3
tp938
I95766
s(g4
g4
g3
tp939
I3728
s(g3
g3
g4
tp940
I396844
s(g3
g4
g4
tp941
I35946
s(g4
g3
g3
tp942
I2163787
sg10
(g936
g11
g12
tp943
s(g4
g4
g4
tp944
I2709
s(g4
g3
g4
tp945
I21088
ssS'\xe4\xb8\x8d\xe6\x96\xad'
p946
(dp947
(g33
g34
g33
tp948
I524847
s(g34
g34
g33
tp949
I113404
s(g33
g33
g34
tp950
I930748
s(g33
g34
g34
tp951
I164130
s(g34
g33
g33
tp952
I1929592
sg40
(g946
g41
g42
tp953
s(g34
g34
g34
tp954
I118922
s(g34
g33
g34
tp955
I48186
ssS'\xe5\x8d\x81\xe5\x85\xab'
p956
(dp957
(g3
g4
g3
tp958
I95767
s(g4
g4
g3
tp959
I44252
s(g3
g3
g4
tp960
I396844
s(g3
g4
g4
tp961
I36155
s(g4
g3
g3
tp962
I2937141
sg10
(g956
g11
g12
tp963
s(g4
g4
g4
tp964
I28746
s(g4
g3
g4
tp965
I61582
ssS'\xe7\xa7\x91\xe5\xad\xa6'
p966
(dp967
(g33
g34
g33
tp968
I524847
s(g34
g34
g33
tp969
I51854
s(g33
g33
g34
tp970
I930748
s(g33
g34
g34
tp971
I164130
s(g34
g33
g33
tp972
I38425018
sg40
(g966
g41
g42
tp973
s(g34
g34
g34
tp974
I52319
s(g34
g33
g34
tp975
I34428
ssS'\xe5\xbb\xba\xe8\xae\xbe'
p976
(dp977
(g3
g4
g3
tp978
I140702
s(g4
g4
g3
tp979
I36616
s(g3
g3
g4
tp980
I398029
s(g3
g4
g4
tp981
I36155
s(g4
g3
g3
tp982
I59549188
sg10
(g976
g11
g12
tp983
s(g4
g4
g4
tp984
I49601
s(g4
g3
g4
tp985
I15292421
ssS'\xe7\xbb\x8f\xe6\xb5\x8e\xe7\xa4\xbe\xe4\xbc\x9a'
p986
(dp987
(g18
g19
g18
tp988
I545101
s(g19
g19
g18
tp989
I4157
s(g18
g18
g19
tp990
I397577
s(g18
g19
g19
tp991
I53625
s(g19
g18
g18
tp992
I222324
sg25
(g986
g26
g27
tp993
s(g19
g19
g19
tp994
I3548
s(g19
g18
g19
tp995
I63721
ssS'\xe7\xac\xac\xe5\x8d\x81\xe5\x85\xab\xe5\xb1\x8a'
p996
(dp997
(g3
g4
g3
tp998
I140702
s(g4
g4
g3
tp999
I1876
s(g3
g3
g4
tp1000
I396844
s(g3
g4
g4
tp1001
I35946
s(g4
g3
g3
tp1002
I159018
sg10
(g996
g11
g12
tp1003
s(g4
g4
g4
tp1004
I1715
s(g4
g3
g4
tp1005
I11600
ssS'\xe6\xb7\xb1\xe5\x8c\x96\xe6\x94\xb9\xe9\x9d\xa9'
p1006
(dp1007
(g33
g34
g33
tp1008
I524847
s(g34
g34
g33
tp1009
I9544
s(g33
g33
g34
tp1010
I930748
s(g33
g34
g34
tp1011
I164130
s(g34
g33
g33
tp1012
I863264
sg40
(g1006
g41
g42
tp1013
s(g34
g34
g34
tp1014
I5473
s(g34
g33
g34
tp1015
I35516
ssS'\xe5\x9b\xbd\xe6\x9c\x89\xe4\xbc\x81\xe4\xb8\x9a'
p1016
(dp1017
(g18
g19
g18
tp1018
I545101
s(g19
g19
g18
tp1019
I21356
s(g18
g18
g19
tp1020
I397577
s(g18
g19
g19
tp1021
I53625
s(g19
g18
g18
tp1022
I905261
sg25
(g1016
g26
g27
tp1023
s(g19
g19
g19
tp1024
I27127
s(g19
g18
g19
tp1025
I44250
ssS'\xe5\x85\x9a\xe5\x86\x85'
p1026
(dp1027
(g33
g34
g33
tp1028
I524847
s(g34
g34
g33
tp1029
I13845
s(g33
g33
g34
tp1030
I930748
s(g33
g34
g34
tp1031
I164130
s(g34
g33
g33
tp1032
I188313
sg40
(g1026
g41
g42
tp1033
s(g34
g34
g34
tp1034
I15535
s(g34
g33
g34
tp1035
I33205
ssS'\xe5\xb9\xb2\xe9\x83\xa8'
p1036
(dp1037
(g33
g34
g33
tp1038
I524847
s(g34
g34
g33
tp1039
I46521
s(g33
g33
g34
tp1040
I930748
s(g33
g34
g34
tp1041
I164130
s(g34
g33
g33
tp1042
I3872667
sg40
(g1036
g41
g42
tp1043
s(g34
g34
g34
tp1044
I49710
s(g34
g33
g34
tp1045
I67327
ssS'\xe7\x9d\x80\xe5\x8a\x9b'
p1046
(dp1047
(g3
g4
g3
tp1048
I140702
s(g4
g4
g3
tp1049
I22361
s(g3
g3
g4
tp1050
I397577
s(g3
g4
g4
tp1051
I36155
s(g4
g3
g3
tp1052
I253156
sg10
(g1046
g11
g12
tp1053
s(g4
g4
g4
tp1054
I26351
s(g4
g3
g4
tp1055
I45179
ssS'\xe4\xbd\x93\xe5\x88\xb6\xe6\x94\xb9\xe9\x9d\xa9'
p1056
(dp1057
(g33
g34
g33
tp1058
I524847
s(g34
g34
g33
tp1059
I19361
s(g33
g33
g34
tp1060
I930748
s(g33
g34
g34
tp1061
I164116
s(g34
g33
g33
tp1062
I61148
sg40
(g1056
g41
g42
tp1063
s(g34
g34
g34
tp1064
I17065
s(g34
g33
g34
tp1065
I69280
ssS'\xe7\xbb\x93\xe5\x90\x88'
p1066
(dp1067
(g3
g4
g3
tp1068
I140702
s(g4
g4
g3
tp1069
I67378
s(g3
g3
g4
tp1070
I396844
s(g3
g4
g4
tp1071
I36155
s(g4
g3
g3
tp1072
I4564215
sg10
(g1066
g11
g12
tp1073
s(g4
g4
g4
tp1074
I74327
s(g4
g3
g4
tp1075
I76903
ssS'\xe5\x8a\xa0\xe5\xbc\xba'
p1076
(dp1077
(g18
g19
g18
tp1078
I545101
s(g19
g19
g18
tp1079
I46950
s(g18
g18
g19
tp1080
I397577
s(g18
g19
g19
tp1081
I53625
s(g19
g18
g18
tp1082
I1451814
sg25
(g1076
g26
g27
tp1083
s(g19
g19
g19
tp1084
I49835
s(g19
g18
g19
tp1085
I101624
ssS'\xe5\x9b\xbd\xe5\x8a\xa1\xe9\x99\xa2'
p1086
(dp1087
(g243
g244
g243
tp1088
I288544
s(g244
g244
g243
tp1089
I21884
s(g243
g243
g244
tp1090
I397919
s(g243
g244
g244
tp1091
I152177
s(g244
g243
g243
tp1092
I810385
sg250
(g1086
g251
g252
tp1093
s(g244
g244
g244
tp1094
I26532
s(g244
g243
g244
tp1095
I26650
ssS'\xe4\xbc\x9a\xe8\xae\xae'
p1096
(dp1097
(g33
g34
g33
tp1098
I524847
s(g34
g34
g33
tp1099
I43774
s(g33
g33
g34
tp1100
I930748
s(g33
g34
g34
tp1101
I164130
s(g34
g33
g33
tp1102
I1142659
sg40
(g1096
g41
g42
tp1103
s(g34
g34
g34
tp1104
I50820
s(g34
g33
g34
tp1105
I77211
ssS'\xe8\xb4\xaf\xe5\xbd\xbb'
p1106
(dp1107
(g3
g4
g3
tp1108
I140702
s(g4
g4
g3
tp1109
I39678
s(g3
g3
g4
tp1110
I396844
s(g3
g4
g4
tp1111
I35946
s(g4
g3
g3
tp1112
I583547
sg10
(g1106
g11
g12
tp1113
s(g4
g4
g4
tp1114
I42519
s(g4
g3
g4
tp1115
I110482
ssS'\xe5\x85\xa8\xe4\xbc\x9a'
p1116
(dp1117
(g18
g19
g18
tp1118
I545101
s(g19
g19
g18
tp1119
I30631
s(g18
g18
g19
tp1120
I397577
s(g18
g19
g19
tp1121
I53625
s(g19
g18
g18
tp1122
I534397
sg25
(g1116
g26
g27
tp1123
s(g19
g19
g19
tp1124
I45582
s(g19
g18
g19
tp1125
I49873
ssS'\xe7\xab\x8b\xe6\xb3\x95'
p1126
(dp1127
(g3
g4
g3
tp1128
I140918
s(g4
g4
g3
tp1129
I31447
s(g3
g3
g4
tp1130
I396844
s(g3
g4
g4
tp1131
I35946
s(g4
g3
g3
tp1132
I433552
sg10
(g1126
g11
g12
tp1133
s(g4
g4
g4
tp1134
I35184
s(g4
g3
g4
tp1135
I23980
ssS'\xe6\x8e\xa8\xe8\xbf\x9b'
p1136
(dp1137
(g18
g19
g18
tp1138
I545101
s(g19
g19
g18
tp1139
I63917
s(g18
g18
g19
tp1140
I397577
s(g18
g19
g19
tp1141
I53625
s(g19
g18
g18
tp1142
I4238739
sg25
(g1136
g26
g27
tp1143
s(g19
g19
g19
tp1144
I36206
s(g19
g18
g19
tp1145
I261228
ssS'\xe9\xa2\x86\xe5\xaf\xbc\xe4\xba\xba\xe5\x91\x98'
p1146
(dp1147
(g3
g4
g3
tp1148
I140702
s(g4
g4
g3
tp1149
I2457
s(g3
g3
g4
tp1150
I396844
s(g3
g4
g4
tp1151
I36155
s(g4
g3
g3
tp1152
I15641
sg10
(g1146
g11
g12
tp1153
s(g4
g4
g4
tp1154
I846
s(g4
g3
g4
tp1155
I7049
ssS'\xe6\xb7\xb1\xe5\x8c\x96'
p1156
(dp1157
(g18
g19
g18
tp1158
I545101
s(g19
g19
g18
tp1159
I8173
s(g18
g18
g19
tp1160
I397577
s(g18
g19
g19
tp1161
I53625
s(g19
g18
g18
tp1162
I763404
sg25
(g1156
g26
g27
tp1163
s(g19
g19
g19
tp1164
I31402
s(g19
g18
g19
tp1165
I46358
ssS'\xe5\x9b\xbd\xe5\xae\xb6'
p1166
(dp1167
(g33
g34
g33
tp1168
I524847
s(g34
g34
g33
tp1169
I92764
s(g33
g33
g34
tp1170
I930746
s(g33
g34
g34
tp1171
I164116
s(g34
g33
g33
tp1172
I79331219
sg40
(g1166
g41
g42
tp1173
s(g34
g34
g34
tp1174
I68015
s(g34
g33
g34
tp1175
I158583
ssS'\xe4\xb8\xad\xe5\x9b\xbd\xe5\x85\xb1\xe4\xba\xa7\xe5\x85\x9a'
p1176
(dp1177
(g18
g19
g18
tp1178
I545101
s(g19
g19
g18
tp1179
I44812
s(g18
g18
g19
tp1180
I397577
s(g18
g19
g19
tp1181
I53625
s(g19
g18
g18
tp1182
I902142
sg25
(g1176
g26
g27
tp1183
s(g19
g19
g19
tp1184
I27084
s(g19
g18
g19
tp1185
I118793
ssS'\xe6\x89\xa7\xe6\x94\xbf'
p1186
(dp1187
(g3
g4
g3
tp1188
I140702
s(g4
g4
g3
tp1189
I39268
s(g3
g3
g4
tp1190
I396844
s(g3
g4
g4
tp1191
I35946
s(g4
g3
g3
tp1192
I6165411
sg10
(g1186
g11
g12
tp1193
s(g4
g4
g4
tp1194
I35512
s(g4
g3
g4
tp1195
I42914
ssS'\xe5\x9d\x9a\xe6\x8c\x81'
p1196
(dp1197
(g243
g244
g243
tp1198
I288544
s(g244
g244
g243
tp1199
I34857
s(g243
g243
g244
tp1200
I397919
s(g243
g244
g244
tp1201
I152145
s(g244
g243
g243
tp1202
I2527967
sg250
(g1196
g251
g252
tp1203
s(g244
g244
g244
tp1204
I51554
s(g244
g243
g244
tp1205
I90956
ssS'\xe5\x85\xa8\xe5\x85\x9a\xe5\x85\xa8\xe5\x9b\xbd'
p1206
(dp1207
(g33
g34
g33
tp1208
I524847
s(g34
g34
g33
tp1209
I19578
s(g33
g33
g34
tp1210
I930748
s(g33
g34
g34
tp1211
I164130
s(g34
g33
g33
tp1212
I23324
sg40
(g1206
g41
g42
tp1213
s(g34
g34
g34
tp1214
I13703
s(g34
g33
g34
tp1215
I39508
ssS'\xe6\x8f\x90\xe9\xab\x98'
p1216
(dp1217
(g3
g4
g3
tp1218
I140702
s(g4
g4
g3
tp1219
I116656
s(g3
g3
g4
tp1220
I396844
s(g3
g4
g4
tp1221
I35946
s(g4
g3
g3
tp1222
I459153
sg10
(g1216
g11
g12
tp1223
s(g4
g4
g4
tp1224
I64936
s(g4
g3
g4
tp1225
I152164
ssS'\xe5\xae\xa1\xe8\xae\xae'
p1226
(dp1227
(g18
g19
g18
tp1228
I545101
s(g19
g19
g18
tp1229
I8798
s(g18
g18
g19
tp1230
I397577
s(g18
g19
g19
tp1231
I53625
s(g19
g18
g18
tp1232
I3127727
sg25
(g1226
g26
g27
tp1233
s(g19
g19
g19
tp1234
I24867
s(g19
g18
g19
tp1235
I48545
ssS'\xe6\x94\xb9\xe8\xbf\x9b'
p1236
(dp1237
(g3
g4
g3
tp1238
I140702
s(g4
g4
g3
tp1239
I53877
s(g3
g3
g4
tp1240
I396844
s(g3
g4
g4
tp1241
I35946
s(g4
g3
g3
tp1242
I1854038
sg10
(g1236
g11
g12
tp1243
s(g4
g4
g4
tp1244
I38902
s(g4
g3
g4
tp1245
I39679
ssS'\xe5\xae\x8c\xe5\x96\x84'
p1246
(dp1247
(g33
g34
g33
tp1248
I524847
s(g34
g34
g33
tp1249
I85445
s(g33
g33
g34
tp1250
I930748
s(g33
g34
g34
tp1251
I164116
s(g34
g33
g33
tp1252
I1199879
sg40
(g1246
g41
g42
tp1253
s(g34
g34
g34
tp1254
I46987
s(g34
g33
g34
tp1255
I151430
ssS'\xe5\x8f\x8d\xe5\xaf\xb9'
p1256
(dp1257
(g3
g4
g3
tp1258
I95767
s(g4
g4
g3
tp1259
I34306
s(g3
g3
g4
tp1260
I398029
s(g3
g4
g4
tp1261
I36155
s(g4
g3
g3
tp1262
I3315670
sg10
(g1256
g11
g12
tp1263
s(g4
g4
g4
tp1264
I49625
s(g4
g3
g4
tp1265
I34514
ssS'\xe5\xae\x9e\xe7\x8e\xb0'
p1266
(dp1267
(g18
g19
g18
tp1268
I545101
s(g19
g19
g18
tp1269
I120791
s(g18
g18
g19
tp1270
I397577
s(g18
g19
g19
tp1271
I53625
s(g19
g18
g18
tp1272
I5820942
sg25
(g1266
g26
g27
tp1273
s(g19
g19
g19
tp1274
I115653
s(g19
g18
g19
tp1275
I151123
ssS'\xe5\x85\xa8\xe9\x9d\xa2'
p1276
(dp1277
(g3
g4
g3
tp1278
I140702
s(g4
g4
g3
tp1279
I75822
s(g3
g3
g4
tp1280
I396844
s(g3
g4
g4
tp1281
I35946
s(g4
g3
g3
tp1282
I4383784
sg10
(g1276
g11
g12
tp1283
s(g4
g4
g4
tp1284
I57750
s(g4
g3
g4
tp1285
I142827
ssS'\xe5\x9b\xbd\xe6\xb0\x91\xe7\xbb\x8f\xe6\xb5\x8e'
p1286
(dp1287
(g33
g34
g33
tp1288
I524847
s(g34
g34
g33
tp1289
I26553
s(g33
g33
g34
tp1290
I930748
s(g33
g34
g34
tp1291
I164130
s(g34
g33
g33
tp1292
I782892
sg40
(g1286
g41
g42
tp1293
s(g34
g34
g34
tp1294
I24886
s(g34
g33
g34
tp1295
I34099
ssS'\xe5\xb9\xb2\xe9\x83\xa8\xe9\x98\x9f\xe4\xbc\x8d'
p1296
(dp1297
(g243
g244
g243
tp1298
I288544
s(g244
g244
g243
tp1299
I13438
s(g243
g243
g244
tp1300
I397919
s(g243
g244
g244
tp1301
I152145
s(g244
g243
g243
tp1302
I163710
sg250
(g1296
g251
g252
tp1303
s(g244
g244
g244
tp1304
I11773
s(g244
g243
g244
tp1305
I24186
ssS'\xe9\xa2\x86\xe5\xaf\xbc'
p1306
(dp1307
(g3
g4
g3
tp1308
I95767
s(g4
g4
g3
tp1309
I24123
s(g3
g3
g4
tp1310
I398029
s(g3
g4
g4
tp1311
I36155
s(g4
g3
g3
tp1312
I5154781
sg10
(g1306
g11
g12
tp1313
s(g4
g4
g4
tp1314
I56744
s(g4
g3
g4
tp1315
I78387
ssS'\xe4\xbb\xb7\xe5\x80\xbc\xe4\xbd\x93\xe7\xb3\xbb'
p1316
(dp1317
(g243
g244
g243
tp1318
I288544
s(g244
g244
g243
tp1319
I4311
s(g243
g243
g244
tp1320
I397919
s(g243
g244
g244
tp1321
I152145
s(g244
g243
g243
tp1322
I131719
sg250
(g1316
g251
g252
tp1323
s(g244
g244
g244
tp1324
I5312
s(g244
g243
g244
tp1325
I153225
ssS'\xe9\x87\x8d\xe8\xa6\x81'
p1326
(dp1327
(g3
g4
g3
tp1328
I95767
s(g4
g4
g3
tp1329
I66652
s(g3
g3
g4
tp1330
I396844
s(g3
g4
g4
tp1331
I35946
s(g4
g3
g3
tp1332
I3978865
sg10
(g1326
g11
g12
tp1333
s(g4
g4
g4
tp1334
I63270
s(g4
g3
g4
tp1335
I189646
ssS'\xe9\xa9\xac\xe5\x85\x8b\xe6\x80\x9d\xe4\xb8\xbb\xe4\xb9\x89'
p1336
(dp1337
(g3
g4
g3
tp1338
I140702
s(g4
g4
g3
tp1339
I60819
s(g3
g3
g4
tp1340
I398029
s(g3
g4
g4
tp1341
I36155
s(g4
g3
g3
tp1342
I539155
sg10
(g1336
g11
g12
tp1343
s(g4
g4
g4
tp1344
I42776
s(g4
g3
g4
tp1345
I295597
ssS'\xe5\x85\xac\xe5\xb9\xb3\xe6\xad\xa3\xe4\xb9\x89'
p1346
(dp1347
(g3
g4
g3
tp1348
I95767
s(g4
g4
g3
tp1349
I19032
s(g3
g3
g4
tp1350
I398029
s(g3
g4
g4
tp1351
I36014
s(g4
g3
g3
tp1352
I455129
sg10
(g1346
g11
g12
tp1353
s(g4
g4
g4
tp1354
I25465
s(g4
g3
g4
tp1355
I49453
ssS'\xe4\xb8\xad\xe5\xa4\xae\xe6\x94\xbf\xe6\xb2\xbb\xe5\xb1\x80'
p1356
(dp1357
(g33
g34
g33
tp1358
I524847
s(g34
g34
g33
tp1359
I33150
s(g33
g33
g34
tp1360
I930748
s(g33
g34
g34
tp1361
I164130
s(g34
g33
g33
tp1362
I66272
sg40
(g1356
g41
g42
tp1363
s(g34
g34
g34
tp1364
I13478
s(g34
g33
g34
tp1365
I58386
ssS'\xe5\x85\xac\xe6\x9c\x89\xe5\x88\xb6'
p1366
(dp1367
(g33
g34
g33
tp1368
I524847
s(g34
g34
g33
tp1369
I25128
s(g33
g33
g34
tp1370
I930748
s(g33
g34
g34
tp1371
I164130
s(g34
g33
g33
tp1372
I307428
sg40
(g1366
g41
g42
tp1373
s(g34
g34
g34
tp1374
I36313
s(g34
g33
g34
tp1375
I51015
ssS'\xe5\x81\xa5\xe5\x85\xa8'
p1376
(dp1377
(g3
g4
g3
tp1378
I140702
s(g4
g4
g3
tp1379
I21974
s(g3
g3
g4
tp1380
I396846
s(g3
g4
g4
tp1381
I35946
s(g4
g3
g3
tp1382
I238865
sg10
(g1376
g11
g12
tp1383
s(g4
g4
g4
tp1384
I29456
s(g4
g3
g4
tp1385
I64791
ssS'\xe5\x8d\x81\xe4\xba\x94\xe5\xa4\xa7'
p1386
(dp1387
(g218
g219
g218
tp1388
I288544
s(g219
g219
g218
tp1389
I13219
s(g218
g218
g219
tp1390
I397919
s(g218
g219
g219
tp1391
I70123
s(g219
g218
g218
tp1392
I24939
sg225
(g1386
g226
g227
tp1393
s(g219
g219
g219
tp1394
I12311
s(g219
g218
g219
tp1395
I13974
ssS'\xe4\xb9\x9d\xe5\xb1\x8a\xe5\x85\xa8\xe5\x9b\xbd\xe4\xba\xba\xe5\xa4\xa7'
p1396
(dp1397
(g3
g4
g3
tp1398
I140702
s(g4
g4
g3
tp1399
I7539
s(g3
g3
g4
tp1400
I396844
s(g3
g4
g4
tp1401
I35946
s(g4
g3
g3
tp1402
I24264
sg10
(g1396
g11
g12
tp1403
s(g4
g4
g4
tp1404
I3256
s(g4
g3
g4
tp1405
I19382
ssS'\xe8\xbd\xac\xe5\x8f\x98'
p1406
(dp1407
(g243
g244
g243
tp1408
I288544
s(g244
g244
g243
tp1409
I45422
s(g243
g243
g244
tp1410
I397919
s(g243
g244
g244
tp1411
I152145
s(g244
g243
g243
tp1412
I1826397
sg250
(g1406
g251
g252
tp1413
s(g244
g244
g244
tp1414
I45225
s(g244
g243
g244
tp1415
I39141
ssS'\xe6\x8e\xa8\xe5\x8a\xa8'
p1416
(dp1417
(g33
g34
g33
tp1418
I524847
s(g34
g34
g33
tp1419
I91168
s(g33
g33
g34
tp1420
I930748
s(g33
g34
g34
tp1421
I164130
s(g34
g33
g33
tp1422
I913968
sg40
(g1416
g41
g42
tp1423
s(g34
g34
g34
tp1424
I55861
s(g34
g33
g34
tp1425
I65224
ssS'\xe6\xb3\x95\xe6\xb2\xbb'
p1426
(dp1427
(g18
g19
g18
tp1428
I545101
s(g19
g19
g18
tp1429
I22385
s(g18
g18
g19
tp1430
I397577
s(g18
g19
g19
tp1431
I53625
s(g19
g18
g18
tp1432
I2234133
sg25
(g1426
g26
g27
tp1433
s(g19
g19
g19
tp1434
I35597
s(g19
g18
g19
tp1435
I96906
ssS'\xe5\x8f\x91\xe5\xb1\x95'
p1436
(dp1437
(g3
g4
g3
tp1438
I140918
s(g4
g4
g3
tp1439
I159216
s(g3
g3
g4
tp1440
I396844
s(g3
g4
g4
tp1441
I36155
s(g4
g3
g3
tp1442
I21410194
sg10
(g1436
g11
g12
tp1443
s(g4
g4
g4
tp1444
I50444
s(g4
g3
g4
tp1445
I232830
ssS'\xe6\x8a\x97\xe7\x81\xbe\xe6\x95\x91\xe7\x81\xbe'
p1446
(dp1447
(g33
g34
g33
tp1448
I524847
s(g34
g34
g33
tp1449
I2845
s(g33
g33
g34
tp1450
I930748
s(g33
g34
g34
tp1451
I164130
s(g34
g33
g33
tp1452
I331133
sg40
(g1446
g41
g42
tp1453
s(g34
g34
g34
tp1454
I4557
s(g34
g33
g34
tp1455
I23975
ss.